Microchip Technology Inc, vv1_11 (A) 

Tool Name:
  /Applications/microchip/xc16/v1.11/bin/bin/../bin/coff-ld

Command:
  -p33FJ256GP710A \
  -o \
  dist/ICD3/production/lino-imu-udb4.production.cof \
  -L/Applications/microchip/xc16/v1.11/bin/bin/.. \
  -L/Applications/microchip/xc16/v1.11/bin/bin/../../lib \
  -L/Applications/microchip/xc16/v1.11/bin/bin/../../lib/PIC24E \
  -L/Applications/microchip/xc16/v1.11/bin/bin/../../support/PIC24E/gld \
  -L/Applications/microchip/xc16/v1.11/bin/bin/../../lib/PIC24F \
  -L/Applications/microchip/xc16/v1.11/bin/bin/../../support/PIC24F/gld \
  -L/Applications/microchip/xc16/v1.11/bin/bin/../../lib/PIC24H \
  -L/Applications/microchip/xc16/v1.11/bin/bin/../../support/PIC24H/gld \
  -L/Applications/microchip/xc16/v1.11/bin/bin/../../lib/dsPIC30F \
  -L/Applications/microchip/xc16/v1.11/bin/bin/../../support/dsPIC30F/gld \
  -L/Applications/microchip/xc16/v1.11/bin/bin/../../lib/dsPIC33E \
  -L/Applications/microchip/xc16/v1.11/bin/bin/../../support/dsPIC33E/gld \
  -L/Applications/microchip/xc16/v1.11/bin/bin/../../lib/dsPIC33F \
  -L/Applications/microchip/xc16/v1.11/bin/bin/../../support/dsPIC33F/gld \
  build/ICD3/production/_ext/1077471063/estWind.o \
  build/ICD3/production/_ext/1077471063/estYawDrift.o \
  build/ICD3/production/_ext/1077471063/gpsParseCommon.o \
  build/ICD3/production/_ext/1077471063/gpsParseSTD.o \
  build/ICD3/production/_ext/1077471063/gpsParseUBX.o \
  build/ICD3/production/_ext/1077471063/mathlibNAV.o \
  build/ICD3/production/_ext/1077471063/rmat.o \
  build/ICD3/production/_ext/1077471063/libDCM.o \
  build/ICD3/production/_ext/1077471063/deadReckoning.o \
  build/ICD3/production/_ext/1077471063/gpsParseMTEK.o \
  build/ICD3/production/_ext/1077454706/background.o \
  build/ICD3/production/_ext/1077454706/libUDB.o \
  build/ICD3/production/_ext/1077454706/analog2digital_udb4.o \
  build/ICD3/production/_ext/1077454706/magneto_udb4.o \
  build/ICD3/production/_ext/1077454706/radioIn_udb4.o \
  build/ICD3/production/_ext/1077454706/servoOut.o \
  build/ICD3/production/_ext/1077454706/serialIO_udb4.o \
  build/ICD3/production/_ext/1077454706/osd.o \
  build/ICD3/production/_ext/1077454706/traps_udb4_asm.o \
  build/ICD3/production/_ext/1077454706/24LC256.o \
  build/ICD3/production/_ext/1077454706/events.o \
  build/ICD3/production/_ext/1077454706/I2C1_udb4.o \
  build/ICD3/production/_ext/1077454706/I2C2_udb4.o \
  build/ICD3/production/_ext/1077454706/dsNavI2C.o \
  build/ICD3/production/_ext/1472/tesPoint.o \
  build/ICD3/production/_ext/679848855/madd.o \
  build/ICD3/production/_ext/679848855/mmul.o \
  build/ICD3/production/_ext/679848855/mscl.o \
  build/ICD3/production/_ext/679848855/msub.o \
  build/ICD3/production/_ext/679848855/mtrp.o \
  build/ICD3/production/_ext/679848855/vadd.o \
  build/ICD3/production/_ext/679848855/vcon.o \
  build/ICD3/production/_ext/679848855/vcopy.o \
  build/ICD3/production/_ext/679848855/vcor.o \
  build/ICD3/production/_ext/679848855/vdot.o \
  build/ICD3/production/_ext/679848855/vmax.o \
  build/ICD3/production/_ext/679848855/vmin.o \
  build/ICD3/production/_ext/679848855/vmul.o \
  build/ICD3/production/_ext/679848855/vneg.o \
  build/ICD3/production/_ext/679848855/vpow.o \
  build/ICD3/production/_ext/679848855/vscl.o \
  build/ICD3/production/_ext/679848855/vsub.o \
  build/ICD3/production/_ext/679848855/vzpad.o \
  build/ICD3/production/_ext/1472/config_tests.o \
  build/ICD3/production/_ext/1472/behavior.o \
  build/ICD3/production/_ext/1472/cameraCntrl.o \
  build/ICD3/production/_ext/1472/main.o \
  build/ICD3/production/_ext/1472/navigate.o \
  build/ICD3/production/_ext/1472/pitchCntrl.o \
  build/ICD3/production/_ext/1472/rollCntrl.o \
  build/ICD3/production/_ext/1472/servoMix.o \
  build/ICD3/production/_ext/1472/states.o \
  build/ICD3/production/_ext/1472/yawCntrl.o \
  build/ICD3/production/_ext/1472/telemetry.o \
  build/ICD3/production/_ext/1472/servoPrepare.o \
  build/ICD3/production/_ext/1472/flightplan-waypoints.o \
  build/ICD3/production/_ext/1472/flightplan-logo.o \
  build/ICD3/production/_ext/1472/mp_osd.o \
  build/ICD3/production/_ext/1472/altitudeCntrl.o \
  build/ICD3/production/_ext/1472/MAVLink.o \
  build/ICD3/production/_ext/1472/mode_switch.o \
  build/ICD3/production/_ext/1472/data_services.o \
  build/ICD3/production/_ext/1472/data_storage.o \
  build/ICD3/production/_ext/1472/nv_memory_table.o \
  build/ICD3/production/_ext/1472/parameter_table.o \
  build/ICD3/production/_ext/1472/airspeedCntrl.o \
  build/ICD3/production/_ext/1472/altitudeCntrlVariable.o \
  build/ICD3/production/_ext/656130150/time_conversion.o \
  --defsym=__MPLAB_BUILD=1 \
  -Tp33FJ256GP710A.gld.00 \
  --heap=512 \
  --stack=16 \
  --check-sections \
  --data-init \
  --pack-data \
  --handles \
  --isr \
  --no-gc-sections \
  --fill-upper=0 \
  --stackguard=16 \
  --no-force-link \
  --smart-io \
  -Map=dist/ICD3/production/MatrixPilot-udb4.X.production.map \
  --report-mem \
  --cref \
  -start-group \
  --library=lega-pic30-coff \
  --library=m-coff \
  --library=lega-c-coff \
  -end-group \

Archive member included because of file (symbol)

/Applications/microchip/xc16/v1.11/bin/bin/../../lib/liblega-pic30-coff.a(crt0_standard.o)
                              (_resetPRI)
/Applications/microchip/xc16/v1.11/bin/bin/../../lib/liblega-pic30-coff.a(delay32.Lo)
                              build/ICD3/production/_ext/1077454706/libUDB.o (__delay32)
/Applications/microchip/xc16/v1.11/bin/bin/../../lib/liblega-pic30-coff.a(data_init_standard.o)
                              /Applications/microchip/xc16/v1.11/bin/bin/../../lib/liblega-pic30-coff.a(crt0_standard.o) (_data_init_standard)
/Applications/microchip/xc16/v1.11/bin/bin/../../lib/libm-coff.a(divsi3.o)
                              build/ICD3/production/_ext/1077471063/gpsParseCommon.o (__divsi3)
/Applications/microchip/xc16/v1.11/bin/bin/../../lib/libm-coff.a(muldi3.o)
                              build/ICD3/production/_ext/1077471063/mathlibNAV.o (__muldi3)
/Applications/microchip/xc16/v1.11/bin/bin/../../lib/libm-coff.a(divmoddi3.o)
                              build/ICD3/production/_ext/1077454706/libUDB.o (__udivdi3)
/Applications/microchip/xc16/v1.11/bin/bin/../../lib/libm-coff.a(udivsi3.o)
                              build/ICD3/production/_ext/1077454706/serialIO_udb4.o (__udivsi3)
/Applications/microchip/xc16/v1.11/bin/bin/../../lib/libm-coff.a(floatsidf.o)
                              build/ICD3/production/_ext/1472/yawCntrl.o (__floatsidf)
/Applications/microchip/xc16/v1.11/bin/bin/../../lib/libm-coff.a(muldf3.o)
                              build/ICD3/production/_ext/1472/yawCntrl.o (__muldf3)
/Applications/microchip/xc16/v1.11/bin/bin/../../lib/libm-coff.a(fixdfsi.o)
                              build/ICD3/production/_ext/1472/yawCntrl.o (__fixdfsi)
/Applications/microchip/xc16/v1.11/bin/bin/../../lib/libm-coff.a(extendsfdf.o)
                              build/ICD3/production/_ext/1472/telemetry.o (__extendsfdf2)
/Applications/microchip/xc16/v1.11/bin/bin/../../lib/libm-coff.a(adddf3.o)
                              build/ICD3/production/_ext/1472/telemetry.o (__adddf3)
/Applications/microchip/xc16/v1.11/bin/bin/../../lib/libm-coff.a(truncdfsf.o)
                              build/ICD3/production/_ext/1472/telemetry.o (__truncdfsf2)
/Applications/microchip/xc16/v1.11/bin/bin/../../lib/libm-coff.a(floatsisf.o)
                              build/ICD3/production/_ext/1472/telemetry.o (__floatsisf)
/Applications/microchip/xc16/v1.11/bin/bin/../../lib/libm-coff.a(fixsfsi.o)
                              build/ICD3/production/_ext/1472/telemetry.o (__fixsfsi)
/Applications/microchip/xc16/v1.11/bin/bin/../../lib/libm-coff.a(mulsf3.o)
                              build/ICD3/production/_ext/1472/flightplan-waypoints.o (__mulsf3)
/Applications/microchip/xc16/v1.11/bin/bin/../../lib/libm-coff.a(fgtge.o)
                              build/ICD3/production/_ext/656130150/time_conversion.o (__gtsf2)
/Applications/microchip/xc16/v1.11/bin/bin/../../lib/libm-coff.a(floor.o)
                              build/ICD3/production/_ext/656130150/time_conversion.o (floor)
/Applications/microchip/xc16/v1.11/bin/bin/../../lib/libm-coff.a(subdf3.o)
                              build/ICD3/production/_ext/656130150/time_conversion.o (__subdf3)
/Applications/microchip/xc16/v1.11/bin/bin/../../lib/libm-coff.a(dgtge.o)
                              build/ICD3/production/_ext/656130150/time_conversion.o (__gtdf2)
/Applications/microchip/xc16/v1.11/bin/bin/../../lib/libm-coff.a(deqltle.o)
                              build/ICD3/production/_ext/656130150/time_conversion.o (__ltdf2)
/Applications/microchip/xc16/v1.11/bin/bin/../../lib/libm-coff.a(floatunsidf.o)
                              build/ICD3/production/_ext/656130150/time_conversion.o (__floatunsidf)
/Applications/microchip/xc16/v1.11/bin/bin/../../lib/libm-coff.a(divdf3.o)
                              build/ICD3/production/_ext/656130150/time_conversion.o (__divdf3)
/Applications/microchip/xc16/v1.11/bin/bin/../../lib/libm-coff.a(fixunsdfsi.o)
                              build/ICD3/production/_ext/656130150/time_conversion.o (__fixunsdfsi)
/Applications/microchip/xc16/v1.11/bin/bin/../../lib/libm-coff.a(fmod.o)
                              build/ICD3/production/_ext/656130150/time_conversion.o (fmod)
/Applications/microchip/xc16/v1.11/bin/bin/../../lib/libm-coff.a(floatunsisf.o)
                              build/ICD3/production/_ext/656130150/time_conversion.o (__floatunsisf)
/Applications/microchip/xc16/v1.11/bin/bin/../../lib/libm-coff.a(addsf3.o)
                              build/ICD3/production/_ext/656130150/time_conversion.o (__subsf3)
/Applications/microchip/xc16/v1.11/bin/bin/../../lib/libm-coff.a(umuldi3.o)
                              /Applications/microchip/xc16/v1.11/bin/bin/../../lib/libm-coff.a(muldi3.o) (__umuldi3)
/Applications/microchip/xc16/v1.11/bin/bin/../../lib/libm-coff.a(floatdidf.o)
                              /Applications/microchip/xc16/v1.11/bin/bin/../../lib/libm-coff.a(floatsidf.o) (__floatdidf)
/Applications/microchip/xc16/v1.11/bin/bin/../../lib/libm-coff.a(dunpack2.o)
                              /Applications/microchip/xc16/v1.11/bin/bin/../../lib/libm-coff.a(muldf3.o) (_dunpack2)
/Applications/microchip/xc16/v1.11/bin/bin/../../lib/libm-coff.a(dpack.o)
                              /Applications/microchip/xc16/v1.11/bin/bin/../../lib/libm-coff.a(muldf3.o) (_dpack)
/Applications/microchip/xc16/v1.11/bin/bin/../../lib/libm-coff.a(dunpack.o)
                              /Applications/microchip/xc16/v1.11/bin/bin/../../lib/libm-coff.a(fixdfsi.o) (_dunpack)
/Applications/microchip/xc16/v1.11/bin/bin/../../lib/libm-coff.a(funpack.o)
                              /Applications/microchip/xc16/v1.11/bin/bin/../../lib/libm-coff.a(extendsfdf.o) (_funpack)
/Applications/microchip/xc16/v1.11/bin/bin/../../lib/libm-coff.a(fpack.o)
                              /Applications/microchip/xc16/v1.11/bin/bin/../../lib/libm-coff.a(truncdfsf.o) (_fpack)
/Applications/microchip/xc16/v1.11/bin/bin/../../lib/libm-coff.a(floatdisf.o)
                              /Applications/microchip/xc16/v1.11/bin/bin/../../lib/libm-coff.a(floatsisf.o) (__floatdisf)
/Applications/microchip/xc16/v1.11/bin/bin/../../lib/libm-coff.a(funpack2.o)
                              /Applications/microchip/xc16/v1.11/bin/bin/../../lib/libm-coff.a(mulsf3.o) (_funpack2)
/Applications/microchip/xc16/v1.11/bin/bin/../../lib/libm-coff.a(futil.o)
                              /Applications/microchip/xc16/v1.11/bin/bin/../../lib/libm-coff.a(mulsf3.o) (_fPropagateNaN)
/Applications/microchip/xc16/v1.11/bin/bin/../../lib/libm-coff.a(fcompare.o)
                              /Applications/microchip/xc16/v1.11/bin/bin/../../lib/libm-coff.a(fgtge.o) (_fcompare)
/Applications/microchip/xc16/v1.11/bin/bin/../../lib/libm-coff.a(dchop.o)
                              /Applications/microchip/xc16/v1.11/bin/bin/../../lib/libm-coff.a(floor.o) (_dchop)
/Applications/microchip/xc16/v1.11/bin/bin/../../lib/libm-coff.a(dcompare.o)
                              /Applications/microchip/xc16/v1.11/bin/bin/../../lib/libm-coff.a(dgtge.o) (_dcompare)
/Applications/microchip/xc16/v1.11/bin/bin/../../lib/libm-coff.a(floatundidf.o)
                              /Applications/microchip/xc16/v1.11/bin/bin/../../lib/libm-coff.a(floatunsidf.o) (__floatundidf)
/Applications/microchip/xc16/v1.11/bin/bin/../../lib/libm-coff.a(dmodrem.o)
                              /Applications/microchip/xc16/v1.11/bin/bin/../../lib/libm-coff.a(fmod.o) (_dmodrem)
/Applications/microchip/xc16/v1.11/bin/bin/../../lib/libm-coff.a(floatundisf.o)
                              /Applications/microchip/xc16/v1.11/bin/bin/../../lib/libm-coff.a(floatunsisf.o) (__floatundisf)
/Applications/microchip/xc16/v1.11/bin/bin/../../lib/libm-coff.a(dpropagateNaN.o)
                              /Applications/microchip/xc16/v1.11/bin/bin/../../lib/libm-coff.a(dunpack2.o) (_dPropagateNaN)
/Applications/microchip/xc16/v1.11/bin/bin/../../lib/libm-coff.a(dtype.o)
                              /Applications/microchip/xc16/v1.11/bin/bin/../../lib/libm-coff.a(dcompare.o) (_dtype)
/Applications/microchip/xc16/v1.11/bin/bin/../../lib/libm-coff.a(errno.o)
                              /Applications/microchip/xc16/v1.11/bin/bin/../../lib/libm-coff.a(dmodrem.o) (errno)
/Applications/microchip/xc16/v1.11/bin/bin/../../lib/liblega-c-coff.a(strlen.XXo)
                              build/ICD3/production/_ext/1077471063/gpsParseCommon.o (strlen)
/Applications/microchip/xc16/v1.11/bin/bin/../../lib/liblega-c-coff.a(vsnprint.XXo)
                              build/ICD3/production/_ext/1472/telemetry.o (vsnprintf)
/Applications/microchip/xc16/v1.11/bin/bin/../../lib/liblega-c-coff.a(printf_cdnopsuxX.dXXo)
                              build/ICD3/production/_ext/656130150/time_conversion.o (_dprintf_cdnopsuxX)
/Applications/microchip/xc16/v1.11/bin/bin/../../lib/liblega-c-coff.a(memcpy.XXo)
                              /Applications/microchip/xc16/v1.11/bin/bin/../../lib/liblega-c-coff.a(vsnprint.XXo) (memcpy)
/Applications/microchip/xc16/v1.11/bin/bin/../../lib/liblega-c-coff.a(xprintf.XXo)
                              /Applications/microchip/xc16/v1.11/bin/bin/../../lib/liblega-c-coff.a(vsnprint.XXo) (_Printf)
/Applications/microchip/xc16/v1.11/bin/bin/../../lib/liblega-c-coff.a(fwrite.XXo)
                              /Applications/microchip/xc16/v1.11/bin/bin/../../lib/liblega-c-coff.a(printf_cdnopsuxX.dXXo) (fwrite)
/Applications/microchip/xc16/v1.11/bin/bin/../../lib/liblega-c-coff.a(xfiles.XXo)
                              /Applications/microchip/xc16/v1.11/bin/bin/../../lib/liblega-c-coff.a(printf_cdnopsuxX.dXXo) (_Stdout)
/Applications/microchip/xc16/v1.11/bin/bin/../../lib/liblega-c-coff.a(xprintf_cdnopsuxX.dXXo)
                              /Applications/microchip/xc16/v1.11/bin/bin/../../lib/liblega-c-coff.a(printf_cdnopsuxX.dXXo) (__dPrintf_cdnopsuxX)
/Applications/microchip/xc16/v1.11/bin/bin/../../lib/liblega-c-coff.a(xvacopy.XXo)
                              /Applications/microchip/xc16/v1.11/bin/bin/../../lib/liblega-c-coff.a(xprintf.XXo) (_Vacopy)
/Applications/microchip/xc16/v1.11/bin/bin/../../lib/liblega-c-coff.a(strchr.XXo)
                              /Applications/microchip/xc16/v1.11/bin/bin/../../lib/liblega-c-coff.a(xprintf.XXo) (strchr)
/Applications/microchip/xc16/v1.11/bin/bin/../../lib/liblega-c-coff.a(xputfld.XXo)
                              /Applications/microchip/xc16/v1.11/bin/bin/../../lib/liblega-c-coff.a(xprintf.XXo) (_Putfld)
/Applications/microchip/xc16/v1.11/bin/bin/../../lib/liblega-c-coff.a(xputtxt.XXo)
                              /Applications/microchip/xc16/v1.11/bin/bin/../../lib/liblega-c-coff.a(xprintf.XXo) (_Puttxt)
/Applications/microchip/xc16/v1.11/bin/bin/../../lib/liblega-c-coff.a(xfwprep.XXo)
                              /Applications/microchip/xc16/v1.11/bin/bin/../../lib/liblega-c-coff.a(fwrite.XXo) (_Fwprep)
/Applications/microchip/xc16/v1.11/bin/bin/../../lib/liblega-c-coff.a(memchr.XXo)
                              /Applications/microchip/xc16/v1.11/bin/bin/../../lib/liblega-c-coff.a(fwrite.XXo) (memchr)
/Applications/microchip/xc16/v1.11/bin/bin/../../lib/liblega-c-coff.a(fflush.XXo)
                              /Applications/microchip/xc16/v1.11/bin/bin/../../lib/liblega-c-coff.a(fwrite.XXo) (_DNKfflush)
/Applications/microchip/xc16/v1.11/bin/bin/../../lib/liblega-c-coff.a(xputfld_cdnopsuxX.dXXo)
                              /Applications/microchip/xc16/v1.11/bin/bin/../../lib/liblega-c-coff.a(xprintf_cdnopsuxX.dXXo) (__dPutfld_cdnopsuxX)
/Applications/microchip/xc16/v1.11/bin/bin/../../lib/liblega-c-coff.a(xldtob.XXo)
                              /Applications/microchip/xc16/v1.11/bin/bin/../../lib/liblega-c-coff.a(xputfld.XXo) (_Ldtob)
/Applications/microchip/xc16/v1.11/bin/bin/../../lib/liblega-c-coff.a(xlitob.XXo)
                              /Applications/microchip/xc16/v1.11/bin/bin/../../lib/liblega-c-coff.a(xputfld.XXo) (_Litob)
/Applications/microchip/xc16/v1.11/bin/bin/../../lib/liblega-c-coff.a(malloc.XXo)
                              /Applications/microchip/xc16/v1.11/bin/bin/../../lib/liblega-c-coff.a(xfwprep.XXo) (malloc)
/Applications/microchip/xc16/v1.11/bin/bin/../../lib/liblega-c-coff.a(fclose.XXo)
                              /Applications/microchip/xc16/v1.11/bin/bin/../../lib/liblega-c-coff.a(xfwprep.XXo) (_Closreg)
/Applications/microchip/xc16/v1.11/bin/bin/../../lib/liblega-c-coff.a(xldunsca.XXo)
                              /Applications/microchip/xc16/v1.11/bin/bin/../../lib/liblega-c-coff.a(xldtob.XXo) (_LDunscale)
/Applications/microchip/xc16/v1.11/bin/bin/../../lib/liblega-c-coff.a(xldscale.XXo)
                              /Applications/microchip/xc16/v1.11/bin/bin/../../lib/liblega-c-coff.a(xldtob.XXo) (_LDscale)
/Applications/microchip/xc16/v1.11/bin/bin/../../lib/liblega-c-coff.a(ldiv.XXo)
                              /Applications/microchip/xc16/v1.11/bin/bin/../../lib/liblega-c-coff.a(xldtob.XXo) (ldiv)
/Applications/microchip/xc16/v1.11/bin/bin/../../lib/liblega-c-coff.a(xgenld.XXo)
                              /Applications/microchip/xc16/v1.11/bin/bin/../../lib/liblega-c-coff.a(xldtob.XXo) (_Genld)
/Applications/microchip/xc16/v1.11/bin/bin/../../lib/liblega-c-coff.a(xgetmem.XXo)
                              /Applications/microchip/xc16/v1.11/bin/bin/../../lib/liblega-c-coff.a(malloc.XXo) (_Getmem)
/Applications/microchip/xc16/v1.11/bin/bin/../../lib/liblega-c-coff.a(free.XXo)
                              /Applications/microchip/xc16/v1.11/bin/bin/../../lib/liblega-c-coff.a(malloc.XXo) (free)
/Applications/microchip/xc16/v1.11/bin/bin/../../lib/liblega-c-coff.a(xatexit.XXo)
                              /Applications/microchip/xc16/v1.11/bin/bin/../../lib/liblega-c-coff.a(fclose.XXo) (_Atexit)
/Applications/microchip/xc16/v1.11/bin/bin/../../lib/liblega-c-coff.a(xdnorm.XXo)
                              /Applications/microchip/xc16/v1.11/bin/bin/../../lib/liblega-c-coff.a(xldunsca.XXo) (_Dnorm)
/Applications/microchip/xc16/v1.11/bin/bin/../../lib/liblega-c-coff.a(div.XXo)
                              /Applications/microchip/xc16/v1.11/bin/bin/../../lib/liblega-c-coff.a(xgenld.XXo) (div)
/Applications/microchip/xc16/v1.11/bin/bin/../../lib/liblega-pic30-coff.a(write.Lo)
                              /Applications/microchip/xc16/v1.11/bin/bin/../../lib/liblega-c-coff.a(fflush.XXo) (write)
/Applications/microchip/xc16/v1.11/bin/bin/../../lib/liblega-pic30-coff.a(close.Lo)
                              /Applications/microchip/xc16/v1.11/bin/bin/../../lib/liblega-c-coff.a(fclose.XXo) (close)
/Applications/microchip/xc16/v1.11/bin/bin/../../lib/liblega-pic30-coff.a(remove.Lo)
                              /Applications/microchip/xc16/v1.11/bin/bin/../../lib/liblega-c-coff.a(fclose.XXo) (remove)
/Applications/microchip/xc16/v1.11/bin/bin/../../lib/liblega-pic30-coff.a(sbrk.Lo)
                              /Applications/microchip/xc16/v1.11/bin/bin/../../lib/liblega-c-coff.a(xgetmem.XXo) (sbrk)
/Applications/microchip/xc16/v1.11/bin/bin/../../lib/liblega-pic30-coff.a(c30_uart.Lo)
                              /Applications/microchip/xc16/v1.11/bin/bin/../../lib/liblega-pic30-coff.a(write.Lo) (__C30_UART)
/Applications/microchip/xc16/v1.11/bin/bin/../../lib/liblega-pic30-coff.a(brk.Lo)
                              /Applications/microchip/xc16/v1.11/bin/bin/../../lib/liblega-pic30-coff.a(sbrk.Lo) (brk)
/Applications/microchip/xc16/v1.11/bin/bin/../../lib/libm-coff.a(mulsi3.o)
                              /Applications/microchip/xc16/v1.11/bin/bin/../../lib/liblega-c-coff.a(xldtob.XXo) (__mulsi3)
/Applications/microchip/xc16/v1.11/bin/bin/../../lib/libm-coff.a(umodsi3.o)
                              /Applications/microchip/xc16/v1.11/bin/bin/../../lib/liblega-c-coff.a(xlitob.XXo) (__umodsi3)


Selected CodeGuard Options:
  FGS:GWRP:OFF
  FGS:GSS:OFF

CodeGuard FLASH Memory:
  boot    (none)
  secure  (none)
  general 0x200 to 0x2abfc

CodeGuard RAM Memory:
  general 0x800 to 0x7fff
  secure  (none)
  boot    (none)


Program Memory  [Origin = 0x200, Length = 0x2a9fe]

section                    address   length (PC units)   length (bytes) (dec)
-------                    -------   -----------------   --------------------
.text                        0x200              0x2d6a          0x441f  (17439)
.const                      0x2f6a               0x672           0x9ab  (2475)
.text                       0x35dc              0x475a          0x6b07  (27399)
.dinit                      0x7d36               0x384           0x546  (1350)
.text                       0x80ba              0x26a8          0x39fc  (14844)

                     Total program memory used (bytes):         0xf813  (63507) 24%


Data Memory  [Origin = 0x800, Length = 0x7800]

section                    address      alignment gaps    total length  (dec)
-------                    -------      --------------    -------------------
.nbss                        0x800                   0             0x2  (2)
.bss                         0x802                   0           0x308  (776)
.data                        0xb0a                   0           0x12e  (302)
.bss                         0xc38                   0            0x80  (128)
.data                        0xcb8                   0            0x7a  (122)
.bss                         0xd32                   0            0x92  (146)
.data                        0xdc4                   0            0x36  (54)
.bss                         0xdfa                   0            0x58  (88)
.data                        0xe52                   0            0x54  (84)
.bss                         0xea6                   0            0x4e  (78)
.data                        0xef4                   0            0x74  (116)
.bss                         0xf68                   0            0x16  (22)
.data                        0xf7e                   0            0x22  (34)
.bss                         0xfa0                   0            0x1c  (28)
.data                        0xfbc                   0             0xc  (12)
.bss                         0xfc8                   0             0xa  (10)
.data                        0xfd2                   0            0x14  (20)
.bss                         0xfe6                   0            0x14  (20)
.data                        0xffa                   0             0x8  (8)
.pbss                       0x1002                   0             0x8  (8)
.data                       0x100a                   0             0xe  (14)
.bss                        0x1018                   0             0x6  (6)
.data                       0x101e                   0             0xa  (10)
.bss                        0x1028                   0             0x4  (4)
.data                       0x102c                   0             0x8  (8)
.bss                        0x1034                   0             0x6  (6)
.data                       0x103a                   0             0x2  (2)
.bss                        0x103c                   0             0x2  (2)
.data                       0x103e                   0             0x4  (4)
.bss                        0x1042                   0             0x8  (8)
.data                       0x104a                   0             0x4  (4)
.bss                        0x104e                   0             0x2  (2)
.heap                       0x1050                   0           0x200  (512)
_0x138d2e051352fb1          0x7fc0                   0             0xc  (12)
.data                       0x7fcc                   0            0x14  (20)
_0x138d28451352fb1          0x7fe0                   0             0xc  (12)
.bss                        0x7fec                   0            0x14  (20)

                        Total data memory used (bytes):          0xa90  (2704) 8%


Dynamic Memory Usage

region                     address                      maximum length  (dec)
------                     -------                      ---------------------
heap                        0x1050                               0x200  (512)
stack                       0x1250                              0x6d70  (28016)

                        Maximum dynamic memory (bytes):         0x6f70  (28528)


External Symbols in Data Memory (by address):

                    0x0802                  _voltage_temp
                    0x0804                  _fp_high_byte
                    0x0805                  _fp_checksum
                    0x0806                  _serial_buffer
                    0x0906                  _Tmp_serial_buffer
                    0x0a06                  _RX_serial_buffer
                    0x0b06                  _RxBuffindx
                    0x0b08                  _RxBuffCnt
                    0x0b0a                  _ggain
                    0x0b10                  _spin_rate
                    0x0b12                  _spin_axis
                    0x0b18                  _rmat
                    0x0b2a                  _rmatDelayCompensated
                    0x0b3c                  _omegagyro
                    0x0b42                  _omega
                    0x0b48                  _omegacorrP
                    0x0b4e                  _omegacorrI
                    0x0b54                  _accelEarth
                    0x0b5a                  _gyroCorrectionIntegral
                    0x0b66                  _omegaAccum
                    0x0b6c                  _gplane
                    0x0b72                  _dirovergndHGPS
                    0x0b78                  _dirovergndHRmat
                    0x0b7e                  _errorRP
                    0x0b84                  _errorYawground
                    0x0b8a                  _errorYawplane
                    0x0b90                  _error
                    0x0b92                  _accelerometer_earth_integral
                    0x0b9e                  _GPS_velocity_previous
                    0x0ba4                  _accelerometer_samples
                    0x0ba6                  _magAlignment
                    0x0bae                  _mag_latency_counter
                    0x0bb0                  __Stdin
                    0x0bd8                  __Stdout
                    0x0c00                  __Stderr
                    0x0c28                  __Files
                    0x0c38                  _events
                    0x0d32                  _udb_xaccel
                    0x0d3c                  _udb_yaccel
                    0x0d46                  _udb_zaccel
                    0x0d50                  _udb_xrate
                    0x0d5a                  _udb_yrate
                    0x0d64                  _udb_zrate
                    0x0d6e                  _udb_vref
                    0x0d78                  _vref_adj
                    0x0d7a                  _sample_count
                    0x0d7c                  _payloadlength
                    0x0d7e                  _un
                    0x0d80                  _SatIdList_gps
                    0x0d84                  _Hepe_gps
                    0x0d88                  _UtcYear_gps
                    0x0d8a                  _UtcSeconds_gps
                    0x0d8c                  _UtcMonth_gps
                    0x0d8d                  _UtcDay_gps
                    0x0d8e                  _UtcHour_gps
                    0x0d8f                  _UtcMinute_gps
                    0x0d90                  _svs_
                    0x0d92                  _lat_gps_
                    0x0d96                  _long_gps_
                    0x0d9a                  _alt_sl_gps_
                    0x0d9e                  _tow_
                    0x0da2                  _nav_valid_
                    0x0da4                  _nav_type_
                    0x0da6                  _sog_gps_
                    0x0da8                  _cog_gps_
                    0x0daa                  _climb_gps_
                    0x0dac                  _week_no_
                    0x0dae                  _SatIdList_gps_
                    0x0db2                  _Hepe_gps_
                    0x0db6                  _UtcYear_gps_
                    0x0db8                  _UtcSeconds_gps_
                    0x0dba                  _UtcMonth_gps_
                    0x0dbb                  _UtcDay_gps_
                    0x0dbc                  _UtcHour_gps_
                    0x0dbd                  _UtcMinute_gps_
                    0x0dbe                  _hdop_
                    0x0dc0                  _checksum_
                    0x0dc2                  _calculated_checksum
                    0x0dc4                  _dead_reckon_clock
                    0x0dc6                  _IMUvelocityx
                    0x0dca                  _IMUvelocityy
                    0x0dce                  _IMUvelocityz
                    0x0dd2                  _IMUlocationx
                    0x0dd6                  _IMUlocationy
                    0x0dda                  _IMUlocationz
                    0x0dde                  _IMUintegralAccelerationx
                    0x0de2                  _IMUintegralAccelerationy
                    0x0de6                  _IMUintegralAccelerationz
                    0x0dea                  _air_speed_3DIMU
                    0x0dec                  _total_energy
                    0x0dee                  _locationErrorEarth
                    0x0df4                  _velocityErrorEarth
                    0x0dfa                  _lat_gps
                    0x0dfe                  _long_gps
                    0x0e02                  _alt_sl_gps
                    0x0e06                  _tow
                    0x0e0a                  _sog_gps
                    0x0e0c                  _cog_gps
                    0x0e0e                  _climb_gps
                    0x0e10                  _week_no
                    0x0e12                  _hdop
                    0x0e14                  _lat_origin
                    0x0e18                  _long_origin
                    0x0e1c                  _alt_origin
                    0x0e20                  _svs
                    0x0e21                  _lat_cir
                    0x0e22                  _gps_data_age
                    0x0e24                  _actual_dir
                    0x0e25                  _calculated_heading
                    0x0e26                  _declinationVector
                    0x0e2a                  _dcm_declination_angle
                    0x0e2c                  _magFieldEarth
                    0x0e32                  _rmatPrevious
                    0x0e44                  _magFieldEarthNormalizedPrevious
                    0x0e4a                  _magFieldBodyMagnitudePrevious
                    0x0e4c                  _magFieldBodyPrevious
                    0x0e52                  _GPSlocation
                    0x0e58                  _GPSvelocity
                    0x0e5e                  _cos_lat
                    0x0e60                  _gps_out_buffer
                    0x0e62                  _gps_out_buffer_length
                    0x0e64                  _gps_out_index
                    0x0e66                  _cog_previous
                    0x0e68                  _ground_velocity_magnitudeXY
                    0x0e6a                  _sog_previous
                    0x0e6c                  _climb_rate_previous
                    0x0e6e                  _forward_acceleration
                    0x0e70                  _velocity_previous
                    0x0e72                  _air_speed_magnitudeXY
                    0x0e74                  _air_speed_3DGPS
                    0x0e76                  _location_previous
                    0x0e7c                  _hmc5883read_index
                    0x0e7d                  _hmc5883write_index
                    0x0e7e                  _enableMagRead
                    0x0e81                  _enableMagCalibration
                    0x0e84                  _resetMagnetometer
                    0x0e88                  _udb_magOffset
                    0x0e8e                  _magGain
                    0x0e94                  _rawMagCalib
                    0x0e9a                  _I2interrupts
                    0x0e9c                  _magMessage
                    0x0e9e                  _magCalibPause
                    0x0ea0                  _previousMagFieldRaw
                    0x0ea6                  _i2c2_queue
                    0x0ed0                  _I2CTxBuff
                    0x0ed8                  _I2CRxBuff
                    0x0f16                  _pI2C2_callback
                    0x0f18                  _I2C2ERROR
                    0x0f1a                  _I2C2MAXS
                    0x0f1c                  _I2C2MAXQ
                    0x0f1e                  _I2C2_Busy
                    0x0f20                  _I2C2_state
                    0x0f22                  _I2C2_Index
                    0x0f24                  _I2C2_CommandByte
                    0x0f26                  _I2C2_tx_data_size
                    0x0f28                  _I2C2_rx_data_size
                    0x0f2a                  _I2C2_command_data_size
                    0x0f2c                  _pI2C2Buffer
                    0x0f2e                  _pI2C2commandBuffer
                    0x0f30                  _I2C2_service_handle
                    0x0f32                  _I2C2_ERROR
                    0x0f68                  _wp_inject
                    0x0f7e                  _groundVelocityHistory
                    0x0f84                  _fuselageDirectionHistory
                    0x0f8a                  _estimatedWind
                    0x0f90                  _cam_pitch_servo_pwm_delta
                    0x0f92                  _cam_yaw_servo_pwm_delta
                    0x0f94                  _view_location
                    0x0f9a                  _camera_view
                    0x0fa0                  _goal
                    0x0fb0                  _udb_pwIn
                    0x0fb4                  _udb_pwTrim
                    0x0fb8                  _rise
                    0x0fbc                  _throttleFiltered
                    0x0fc0                  _pitchAltitudeAdjust
                    0x0fc2                  _filterManual
                    0x0fc4                  _speed_height
                    0x0fc8                  _udb_pwOut
                    0x0fd0                  _outputNum
                    0x0fd2                  _togoal
                    0x0fd6                  _tofinish_line
                    0x0fd8                  _progress_to_goal
                    0x0fda                  _desired_dir
                    0x0fdc                  _voltage_milis
                    0x0fde                  _CommWd
                    0x0fe0                  _sio_parse
                    0x0fe2                  _sb_index
                    0x0fe4                  _end_index
                    0x0fe6                  _pitch_control
                    0x0fe8                  _roll_control
                    0x0fea                  _yaw_control
                    0x0fec                  _throttle_control
                    0x0fee                  _wind_gain
                    0x0ff0                  _TimeS
                    0x0ffa                  _waggle
                    0x0ffc                  _calib_timer
                    0x0ffe                  _standby_timer
                    0x1000                  _stateS
                    0x1002                  _trap_flags
                    0x1004                  _trap_source
                    0x1008                  _osc_fail_count
                    0x100a                  _waypointIndex
                    0x100c                  _currentWaypointSet
                    0x100e                  _numPointsInCurrentSet
                    0x1010                  _wp_inject_pos
                    0x1012                  _cyclesUntilStartTriggerAction
                    0x1014                  _cyclesUntilStopTriggerAction
                    0x1016                  _currentTriggerActionValue
                    0x1018                  _pitchrate
                    0x101a                  _navElevMix
                    0x101c                  _elevInput
                    0x101e                  __Aldata
                    0x1022                  __Size_block
                    0x1024                  _msg_parse
                    0x1026                  _store_index
                    0x1028                  _dcm_flags
                    0x102c                  _maxstack
                    0x102e                  _DmaBuffer
                    0x1030                  _failSafePulses
                    0x1032                  _noisePulses
                    0x1034                  _current_orientation
                    0x1036                  _desired_behavior
                    0x103a                  _defaultCorcon
                    0x103c                  _udb_flags
                    0x103e                  _event_init_done
                    0x1040                  _DsNavReadIndex
                    0x1041                  _DsNavWriteIndex
                    0x1042                  _flags
                    0x1044                  _desiredHeight
                    0x104c                  ___C30_UART
                    0x104e                  ___curbrk
                    0x7fc0                  _BufferB
                    0x7fcc                  _cpu_timer
                    0x7fce                  __cpu_timer
                    0x7fd0                  _idle_timer
                    0x7fd4                  __idle_timer
                    0x7fd8                  _uptime
                    0x7fdc                  _udb_heartbeat_counter
                    0x7fe0                  _BufferA
                    0x7fec                  _udb_magFieldBody
                    0x7ff2                  _magreg
                    0x7ff8                  _magFieldRaw
                    0x7ffe                  _mrindex

External Symbols in Data Memory (by name):

                    0x7fe0                  _BufferA
                    0x7fc0                  _BufferB
                    0x0fde                  _CommWd
                    0x102e                  _DmaBuffer
                    0x1040                  _DsNavReadIndex
                    0x1041                  _DsNavWriteIndex
                    0x0b9e                  _GPS_velocity_previous
                    0x0e52                  _GPSlocation
                    0x0e58                  _GPSvelocity
                    0x0d84                  _Hepe_gps
                    0x0db2                  _Hepe_gps_
                    0x0f18                  _I2C2ERROR
                    0x0f1c                  _I2C2MAXQ
                    0x0f1a                  _I2C2MAXS
                    0x0f1e                  _I2C2_Busy
                    0x0f24                  _I2C2_CommandByte
                    0x0f32                  _I2C2_ERROR
                    0x0f22                  _I2C2_Index
                    0x0f2a                  _I2C2_command_data_size
                    0x0f28                  _I2C2_rx_data_size
                    0x0f30                  _I2C2_service_handle
                    0x0f20                  _I2C2_state
                    0x0f26                  _I2C2_tx_data_size
                    0x0ed8                  _I2CRxBuff
                    0x0ed0                  _I2CTxBuff
                    0x0e9a                  _I2interrupts
                    0x0dde                  _IMUintegralAccelerationx
                    0x0de2                  _IMUintegralAccelerationy
                    0x0de6                  _IMUintegralAccelerationz
                    0x0dd2                  _IMUlocationx
                    0x0dd6                  _IMUlocationy
                    0x0dda                  _IMUlocationz
                    0x0dc6                  _IMUvelocityx
                    0x0dca                  _IMUvelocityy
                    0x0dce                  _IMUvelocityz
                    0x0a06                  _RX_serial_buffer
                    0x0b08                  _RxBuffCnt
                    0x0b06                  _RxBuffindx
                    0x0d80                  _SatIdList_gps
                    0x0dae                  _SatIdList_gps_
                    0x0ff0                  _TimeS
                    0x0906                  _Tmp_serial_buffer
                    0x0d8d                  _UtcDay_gps
                    0x0dbb                  _UtcDay_gps_
                    0x0d8e                  _UtcHour_gps
                    0x0dbc                  _UtcHour_gps_
                    0x0d8f                  _UtcMinute_gps
                    0x0dbd                  _UtcMinute_gps_
                    0x0d8c                  _UtcMonth_gps
                    0x0dba                  _UtcMonth_gps_
                    0x0d8a                  _UtcSeconds_gps
                    0x0db8                  _UtcSeconds_gps_
                    0x0d88                  _UtcYear_gps
                    0x0db6                  _UtcYear_gps_
                    0x101e                  __Aldata
                    0x0c28                  __Files
                    0x1022                  __Size_block
                    0x0c00                  __Stderr
                    0x0bb0                  __Stdin
                    0x0bd8                  __Stdout
                    0x104c                  ___C30_UART
                    0x104e                  ___curbrk
                    0x7fce                  __cpu_timer
                    0x7fd4                  __idle_timer
                    0x0b54                  _accelEarth
                    0x0b92                  _accelerometer_earth_integral
                    0x0ba4                  _accelerometer_samples
                    0x0e24                  _actual_dir
                    0x0e74                  _air_speed_3DGPS
                    0x0dea                  _air_speed_3DIMU
                    0x0e72                  _air_speed_magnitudeXY
                    0x0e1c                  _alt_origin
                    0x0e02                  _alt_sl_gps
                    0x0d9a                  _alt_sl_gps_
                    0x0dc2                  _calculated_checksum
                    0x0e25                  _calculated_heading
                    0x0ffc                  _calib_timer
                    0x0f90                  _cam_pitch_servo_pwm_delta
                    0x0f92                  _cam_yaw_servo_pwm_delta
                    0x0f9a                  _camera_view
                    0x0dc0                  _checksum_
                    0x0e0e                  _climb_gps
                    0x0daa                  _climb_gps_
                    0x0e6c                  _climb_rate_previous
                    0x0e0c                  _cog_gps
                    0x0da8                  _cog_gps_
                    0x0e66                  _cog_previous
                    0x0e5e                  _cos_lat
                    0x7fcc                  _cpu_timer
                    0x1016                  _currentTriggerActionValue
                    0x100c                  _currentWaypointSet
                    0x1034                  _current_orientation
                    0x1012                  _cyclesUntilStartTriggerAction
                    0x1014                  _cyclesUntilStopTriggerAction
                    0x0e2a                  _dcm_declination_angle
                    0x1028                  _dcm_flags
                    0x0dc4                  _dead_reckon_clock
                    0x0e26                  _declinationVector
                    0x103a                  _defaultCorcon
                    0x1044                  _desiredHeight
                    0x1036                  _desired_behavior
                    0x0fda                  _desired_dir
                    0x0b72                  _dirovergndHGPS
                    0x0b78                  _dirovergndHRmat
                    0x101c                  _elevInput
                    0x0e81                  _enableMagCalibration
                    0x0e7e                  _enableMagRead
                    0x0fe4                  _end_index
                    0x0b90                  _error
                    0x0b7e                  _errorRP
                    0x0b84                  _errorYawground
                    0x0b8a                  _errorYawplane
                    0x0f8a                  _estimatedWind
                    0x103e                  _event_init_done
                    0x0c38                  _events
                    0x1030                  _failSafePulses
                    0x0fc2                  _filterManual
                    0x1042                  _flags
                    0x0e6e                  _forward_acceleration
                    0x0805                  _fp_checksum
                    0x0804                  _fp_high_byte
                    0x0f84                  _fuselageDirectionHistory
                    0x0b0a                  _ggain
                    0x0fa0                  _goal
                    0x0b6c                  _gplane
                    0x0e22                  _gps_data_age
                    0x0e60                  _gps_out_buffer
                    0x0e62                  _gps_out_buffer_length
                    0x0e64                  _gps_out_index
                    0x0f7e                  _groundVelocityHistory
                    0x0e68                  _ground_velocity_magnitudeXY
                    0x0b5a                  _gyroCorrectionIntegral
                    0x0e12                  _hdop
                    0x0dbe                  _hdop_
                    0x0e7c                  _hmc5883read_index
                    0x0e7d                  _hmc5883write_index
                    0x0ea6                  _i2c2_queue
                    0x7fd0                  _idle_timer
                    0x0e21                  _lat_cir
                    0x0dfa                  _lat_gps
                    0x0d92                  _lat_gps_
                    0x0e14                  _lat_origin
                    0x0dee                  _locationErrorEarth
                    0x0e76                  _location_previous
                    0x0dfe                  _long_gps
                    0x0d96                  _long_gps_
                    0x0e18                  _long_origin
                    0x0ba6                  _magAlignment
                    0x0e9e                  _magCalibPause
                    0x0e4a                  _magFieldBodyMagnitudePrevious
                    0x0e4c                  _magFieldBodyPrevious
                    0x0e2c                  _magFieldEarth
                    0x0e44                  _magFieldEarthNormalizedPrevious
                    0x7ff8                  _magFieldRaw
                    0x0e8e                  _magGain
                    0x0e9c                  _magMessage
                    0x0bae                  _mag_latency_counter
                    0x7ff2                  _magreg
                    0x102c                  _maxstack
                    0x7ffe                  _mrindex
                    0x1024                  _msg_parse
                    0x101a                  _navElevMix
                    0x0da4                  _nav_type_
                    0x0da2                  _nav_valid_
                    0x1032                  _noisePulses
                    0x100e                  _numPointsInCurrentSet
                    0x0b42                  _omega
                    0x0b66                  _omegaAccum
                    0x0b4e                  _omegacorrI
                    0x0b48                  _omegacorrP
                    0x0b3c                  _omegagyro
                    0x1008                  _osc_fail_count
                    0x0fd0                  _outputNum
                    0x0f2c                  _pI2C2Buffer
                    0x0f16                  _pI2C2_callback
                    0x0f2e                  _pI2C2commandBuffer
                    0x0d7c                  _payloadlength
                    0x0fc0                  _pitchAltitudeAdjust
                    0x0fe6                  _pitch_control
                    0x1018                  _pitchrate
                    0x0ea0                  _previousMagFieldRaw
                    0x0fd8                  _progress_to_goal
                    0x0e94                  _rawMagCalib
                    0x0e84                  _resetMagnetometer
                    0x0fb8                  _rise
                    0x0b18                  _rmat
                    0x0b2a                  _rmatDelayCompensated
                    0x0e32                  _rmatPrevious
                    0x0fe8                  _roll_control
                    0x0d7a                  _sample_count
                    0x0fe2                  _sb_index
                    0x0806                  _serial_buffer
                    0x0fe0                  _sio_parse
                    0x0e0a                  _sog_gps
                    0x0da6                  _sog_gps_
                    0x0e6a                  _sog_previous
                    0x0fc4                  _speed_height
                    0x0b12                  _spin_axis
                    0x0b10                  _spin_rate
                    0x0ffe                  _standby_timer
                    0x1000                  _stateS
                    0x1026                  _store_index
                    0x0e20                  _svs
                    0x0d90                  _svs_
                    0x0fbc                  _throttleFiltered
                    0x0fec                  _throttle_control
                    0x0fd6                  _tofinish_line
                    0x0fd2                  _togoal
                    0x0dec                  _total_energy
                    0x0e06                  _tow
                    0x0d9e                  _tow_
                    0x1002                  _trap_flags
                    0x1004                  _trap_source
                    0x103c                  _udb_flags
                    0x7fdc                  _udb_heartbeat_counter
                    0x7fec                  _udb_magFieldBody
                    0x0e88                  _udb_magOffset
                    0x0fb0                  _udb_pwIn
                    0x0fc8                  _udb_pwOut
                    0x0fb4                  _udb_pwTrim
                    0x0d6e                  _udb_vref
                    0x0d32                  _udb_xaccel
                    0x0d50                  _udb_xrate
                    0x0d3c                  _udb_yaccel
                    0x0d5a                  _udb_yrate
                    0x0d46                  _udb_zaccel
                    0x0d64                  _udb_zrate
                    0x0d7e                  _un
                    0x7fd8                  _uptime
                    0x0df4                  _velocityErrorEarth
                    0x0e70                  _velocity_previous
                    0x0f94                  _view_location
                    0x0fdc                  _voltage_milis
                    0x0802                  _voltage_temp
                    0x0d78                  _vref_adj
                    0x0ffa                  _waggle
                    0x100a                  _waypointIndex
                    0x0e10                  _week_no
                    0x0dac                  _week_no_
                    0x0fee                  _wind_gain
                    0x0f68                  _wp_inject
                    0x1010                  _wp_inject_pos
                    0x0fea                  _yaw_control

External Symbols in Program Memory (by address):

                  0x000200                  __resetPRI
                  0x000222                  __psv_init
                  0x000232                  ___delay32
                  0x00024e                  __data_init_standard
                  0x00024e                  __data_init
                  0x000368                  _strlen
                  0x000378                  vsnprint.XXo:_prout
                  0x00039a                  _vsnprintf
                  0x0003ba                  printf_cdnopsuxX.dXXo:_prout
                  0x0003d6                  __dprintf_cdnopsuxX
                  0x0003e6                  _memcpy
                  0x0003f4                  __Printf
                  0x000562                  _fwrite
                  0x00060a                  ___dPrintf_cdnopsuxX
                  0x000778                  __Vacopy
                  0x00077c                  _strchr
                  0x00078e                  __Putfld
                  0x000a76                  __Puttxt
                  0x000bee                  __Fwprep
                  0x000c7c                  _memchr
                  0x000c8e                  __DNKfflush
                  0x000d0c                  ___dPutfld_cdnopsuxX
                  0x000f92                  __Ldtob
                  0x0013f2                  __Litob
                  0x0016e2                  _malloc
                  0x00173a                  __Closreg
                  0x00174e                  _fclose
                  0x0017d4                  fclose.XXo:_closeall
                  0x0017ec                  __LDunscale
                  0x001840                  __LDscale
                  0x001934                  _ldiv
                  0x00195e                  __Genld
                  0x001bc4                  __Getmem
                  0x001bd8                  _free
                  0x001c3e                  __Atexit
                  0x001c56                  __Dnorm
                  0x001cf0                  _div
                  0x001dd8                  ___divsi3
                  0x001df6                  ___muldi3
                  0x001e94                  ___udivmoddi3
                  0x001f18                  ___udivdi3
                  0x001f26                  ___umoddi3
                  0x001f2e                  ___divdi3
                  0x001f5e                  ___moddi3
                  0x002018                  ___udivsi3
                  0x002038                  ___floatsidf
                  0x00203e                  ___muldf3
                  0x002128                  ___fixdfsi
                  0x002180                  ___extendsfdf2
                  0x0021be                  ___adddf3
                  0x0022b8                  ___truncdfsf2
                  0x00230e                  ___floatsisf
                  0x002314                  ___fixsfsi
                  0x002356                  ___mulsf3
                  0x0023be                  ___gesf2
                  0x0023be                  ___gtsf2
                  0x0023c2                  _floorl
                  0x0023c2                  _floor
                  0x0023d4                  ___subdf3
                  0x0023d8                  ___gedf2
                  0x0023d8                  ___gtdf2
                  0x0023e2                  ___ledf2
                  0x0023e2                  ___ltdf2
                  0x0023e2                  ___eqdf2
                  0x0023ec                  ___floatunsidf
                  0x0023f0                  ___divdf3
                  0x0024a4                  ___fixunsdfsi
                  0x0024f0                  _fmodl
                  0x0024f0                  _fmod
                  0x0024f8                  ___floatunsisf
                  0x0024fc                  ___subsf3
                  0x0024fe                  ___addsf3
                  0x0025b8                  ___umuldi3
                  0x0025fc                  ___floatdidf
                  0x00261c                  __dunpack2
                  0x00263e                  __dreturnNaN
                  0x002644                  __dunpack2exit
                  0x00264e                  __dpack
                  0x0026a6                  __dunpack
                  0x0026f4                  __funpack
                  0x00271e                  __fpack
                  0x00276a                  ___floatdisf
                  0x00278a                  __funpack2
                  0x00279a                  __fPropagateNaN
                  0x0027ac                  __fbopExit
                  0x0027b4                  __fbopReturnNaN
                  0x0027ba                  __fcompare
                  0x0027f0                  __dchop
                  0x002878                  __dcompare
                  0x0028ca                  ___floatundidf
                  0x002920                  __dmodrem
                  0x0029f0                  ___floatundisf
                  0x002a4e                  __dPropagateNaN
                  0x002a6a                  __dtype
                  0x002a8e                  ___mulp32eds3
                  0x002a8e                  ___mulp32peds3
                  0x002a8e                  ___mulsi3
                  0x002a9a                  ___umodsi3
                  0x002aa0                  _MatrixAdd
                  0x002ae0                  _MatrixMultiply
                  0x002b5a                  _MatrixScale
                  0x002b96                  _MatrixSubtract
                  0x002be4                  _MatrixTranspose
                  0x002c2c                  _VectorAdd
                  0x002c6a                  _VectorConvolve
                  0x002d62                  _VectorCopy
                  0x002d72                  _VectorCorrelate
                  0x002da2                  _VectorDotProduct
                  0x002ddc                  _VectorMax
                  0x002df6                  _VectorMin
                  0x002e10                  _VectorMultiply
                  0x002e4c                  _VectorNegate
                  0x002e8c                  _VectorPower
                  0x002ec4                  _VectorScale
                  0x002f00                  _VectorSubtract
                  0x002f4c                  _VectorZeroPad
                  0x0033fc                  _bin_mode
                  0x003418                  _mode_length
                  0x00341a                  _mode
                  0x003424                  _msg41parse
                  0x0034dc                  _sintab
                  0x00355e                  _waypoints
                  0x003574                  _rtlWaypoints
                  0x00358a                  _wp_inject_byte_order
                  0x0035a0                  _pitch_servo_high_ratio
                  0x0035a2                  _yaw_servo_high_ratio
                  0x0035a4                  _tan_pitch_in_stabilized_mode
                  0x0035a6                  _pitch_offset_centred_pwm
                  0x0035a8                  _yaw_offset_centred_pwm
                  0x0035aa                  _pitch_servo_pwm_max
                  0x0035ac                  _pitch_servo_pwm_min
                  0x0035ae                  _yaw_servo_pwm_max
                  0x0035b0                  _yaw_servo_pwm_min
                  0x0035b2                  _pitchgain
                  0x0035b4                  _pitchkd
                  0x0035b6                  _hoverpitchgain
                  0x0035b8                  _hoverpitchkd
                  0x0035ba                  _rudderElevMixGain
                  0x0035bc                  _rollElevMixGain
                  0x0035be                  _yawkdail
                  0x0035c0                  _rollkp
                  0x0035c2                  _rollkd
                  0x0035c4                  _hoverrollkp
                  0x0035c6                  _hoverrollkd
                  0x0035c8                  _yawkdrud
                  0x0035ca                  _rollkprud
                  0x0035cc                  _rollkdrud
                  0x0035ce                  _hoveryawkp
                  0x0035d0                  _hoveryawkd
                  0x0035d2                  _aileronbgain
                  0x0035d4                  _elevatorbgain
                  0x0035d6                  _rudderbgain
                  0x0035d8                  _yawkpail
                  0x0035da                  _yawkprud
                  0x0037c8                  _TIMECONV_GetDayOfWeekFromJulianDate
                  0x0038b0                  _TIMECONV_GetJulianDateFromGPSTime
                  0x0039a0                  _TIMECONV_GetJulianDateFromUTCTime
                  0x003b22                  _TIMECONV_GetGPSTimeFromJulianDate
                  0x003c70                  _TIMECONV_GetUTCTimeFromJulianDate
                  0x00400e                  _TIMECONV_GetGPSTimeFromUTCTime
                  0x004196                  _TIMECONV_GetGPSTimeFromRinexTime
                  0x0042ca                  _TIMECONV_GetUTCTimeFromGPSfix
                  0x00442e                  _TIMECONV_GetUTCTimeFromGPSTime
                  0x0045f6                  _TIMECONV_DetermineUTCOffset
                  0x0048ec                  _TIMECONV_GetNumberOfDaysInMonth
                  0x0049ce                  _TIMECONV_IsALeapYear
                  0x004a1c                  _TIMECONV_GetDayOfYear
                  0x004be6                  _TIMECONV_GetGPSTimeFromYearAndDayOfYear
                  0x004db8                  _dcm_init_rmat
                  0x004dd2                  _VectorCross
                  0x004e82                  _read_gyros
                  0x004f18                  _read_accel
                  0x004f74                  _omegaSOG
                  0x004fc2                  _adj_accel
                  0x004ff0                  _rupdate
                  0x0050da                  _normalize
                  0x0051ea                  _roll_pitch_drift
                  0x0051f8                  _yaw_drift
                  0x00523e                  _align_rmat_to_mag
                  0x005280                  _quaternion_adjust
                  0x00539a                  _RotVector2RotMat
                  0x005500                  _mag_drift
                  0x005772                  _PI_feedback
                  0x00588c                  _adjust_gyro_gain
                  0x0058b6                  _calibrate_gyros
                  0x00593e                  _dcm_run_imu_step
                  0x005960                  _init_serial
                  0x00596e                  _udb_serial_callback_received_byte
                  0x00597c                  _GO_sio_header
                  0x0059a2                  _GO_sio_id
                  0x0059bc                  _GO_sio_command
                  0x0059d6                  _GO_sio_lenght
                  0x0059f6                  _GO_sio_data
                  0x005a38                  _GO_cmd_parser
                  0x005aaa                  _GO_UartRxError
                  0x005ab2                  _GO_CheckSum
                  0x005ae0                  _GO_serial_input_nav_data_S
                  0x005b12                  _sio_newMsg
                  0x005b44                  _sio_voltage_high
                  0x005b58                  _sio_voltage_low
                  0x005b72                  _hex_char_val
                  0x005ba8                  _sio_fp_data
                  0x005c0c                  _sio_fp_checksum
                  0x005c58                  _serial_output
                  0x005c98                  _GO_serial_output_imu_data_K
                  0x005e70                  _GO_serial_output_gps_data_G
                  0x005f52                  _GO_serial_output_dsnav_data_b
                  0x00617c                  _GO_serial_output_time_data_T
                  0x0061fe                  _GO_serial_output_header
                  0x006224                  _GO_serial_output_bin
                  0x006278                  _GO_I2C_output_yaw
                  0x0062cc                  _udb_serial_callback_get_byte_to_send
                  0x0062f4                  _serial_output_8hz
                  0x0062fa                  _sine
                  0x006356                  _arcsine
                  0x0063f6                  _cosine
                  0x006404                  _rotate
                  0x00646e                  _rect_to_polar
                  0x006522                  _rect_to_polar16
                  0x0065fc                  _sqrt_int
                  0x006666                  _sqrt_long
                  0x006708                  _vector2_mag
                  0x006728                  _vector3_mag
                  0x006754                  _vector2_normalize
                  0x0067b6                  _vector3_normalize
                  0x006840                  _long_scale
                  0x0068d0                  _I2C2_init
                  0x006970                  _I2C2_reset
                  0x006998                  _I2C2_trigger_service
                  0x0069a4                  _serviceI2C2
                  0x0069be                  __MI2C2Interrupt
                  0x0069e8                  _I2C2_CheckAvailable
                  0x006a1e                  _I2C2_Normal
                  0x006a38                  _I2C2_serve_queue
                  0x006b12                  _I2C2_Write
                  0x006bc6                  _I2C2_Read
                  0x006c7a                  _I2C2_checkACK
                  0x006cb2                  _I2C2_startWrite
                  0x006cc2                  _I2C2_writeCommand
                  0x006cd8                  _I2C2_writeCommandData
                  0x006d26                  _I2C2_writeData
                  0x006d66                  _I2C2_writeStop
                  0x006d72                  _I2C2_doneWrite
                  0x006d8c                  _I2C2_readStart
                  0x006d9c                  _I2C2_readCommand
                  0x006db0                  _I2C2_recen
                  0x006dcc                  _I2C2_rerecen
                  0x006dd8                  _I2C2_recstore
                  0x006e06                  _I2C2_stopRead
                  0x006e12                  _I2C2_idle
                  0x006e18                  _I2C2_doneRead
                  0x006e32                  _I2C2_Failed
                  0x006e50                  _setup_origin
                  0x006e98                  _dcm_callback_gps_location_updated
                  0x006eb2                  _set_goal
                  0x006f06                  _update_goal_alt
                  0x006f12                  _process_flightplan
                  0x006f34                  _compute_bearing_to_goal
                  0x007164                  _wind_gain_adjustment
                  0x00716c                  _determine_navigation_deflection
                  0x007254                  _wp_to_relative
                  0x0072de                  _init_flightplan
                  0x00733c                  _use_fixed_origin
                  0x007344                  _get_fixed_origin
                  0x0073a6                  _next_waypoint
                  0x0074b2                  _run_flightplan
                  0x0075c2                  _flightplan_live_begin
                  0x0075ce                  _flightplan_live_received_byte
                  0x00760a                  _flightplan_live_commit
                  0x007626                  _udb_init_capture
                  0x007870                  _set_pwIn
                  0x00788e                  __IC1Interrupt
                  0x0078b2                  __IC2Interrupt
                  0x0078d6                  __IC3Interrupt
                  0x0078fa                  __IC4Interrupt
                  0x00791e                  __IC5Interrupt
                  0x007942                  __IC6Interrupt
                  0x007966                  __IC7Interrupt
                  0x00798a                  __IC8Interrupt
                  0x0079ae                  _excess_energy_height
                  0x0079b6                  _altitudeCntrl
                  0x0079d0                  _set_throttle_control
                  0x007a26                  _setTargetAltitude
                  0x007a32                  _normalAltitudeCntrl
                  0x007c96                  _manualThrottle
                  0x007cde                  _hoverAltitudeCntrl
                  0x0080ba                  _init_states
                  0x0080d8                  _udb_background_callback_periodic
                  0x00810c                  _ent_calibrateS
                  0x00813e                  _ent_acquiringS
                  0x00817c                  _ent_manualS
                  0x0081aa                  _ent_stabilizedS
                  0x0081d8                  _ent_waypointS
                  0x00820c                  _ent_returnS
                  0x008240                  _udb_callback_radio_did_turn_off
                  0x008254                  _startS
                  0x00825c                  _calibrateS
                  0x008270                  _acquiringS
                  0x0082dc                  _manualS
                  0x008320                  _stabilizedS
                  0x008360                  _waypointS
                  0x00838a                  _returnS
                  0x0083c8                  _gpsoutbin
                  0x0083e6                  _gpsoutline
                  0x0083fe                  _udb_gps_callback_get_byte_to_send
                  0x00842a                  _udb_gps_callback_received_byte
                  0x008438                  _udb_background_callback_triggered
                  0x00867a                  _udb_init_gyros
                  0x0086b0                  _udb_init_accelerometer
                  0x0086c0                  _udb_init_ADC
                  0x00879e                  __DMA0Interrupt
                  0x008924                  _rxMagnetometer
                  0x008a38                  _I2C_doneReadMagData
                  0x008bb4                  _dead_reckon
                  0x008e3e                  _udb_init_GPS
                  0x008e9e                  _udb_gps_set_rate
                  0x008ec0                  _udb_gps_check_rate
                  0x008eea                  _udb_gps_start_sending_data
                  0x008ef2                  __U1TXInterrupt
                  0x008f2c                  __U1RXInterrupt
                  0x008f68                  _udb_init_USART
                  0x008fca                  _udb_serial_set_rate
                  0x008fec                  _udb_serial_check_rate
                  0x009016                  _udb_serial_start_sending_data
                  0x00901e                  __U2TXInterrupt
                  0x009058                  __U2RXInterrupt
                  0x009094                  _udb_init
                  0x009102                  _udb_run
                  0x009108                  _udb_init_leds
                  0x009262                  _udb_a2d_record_offsets
                  0x009284                  _udb_servo_record_trims
                  0x0092ac                  _udb_servo_pulsesat
                  0x0092da                  _calculate_analog_sensor_values
                  0x0092e0                  _estimateWind
                  0x00950e                  _gps_nav_valid
                  0x00951e                  _gps_startup_sequence
                  0x009564                  _msg_B3
                  0x009578                  _msg_A0
                  0x009596                  _msg_A2
                  0x0095a6                  _msg_PL1
                  0x0095bc                  _msg_PL2
                  0x0095f6                  _msg_MSG41
                  0x00963e                  _msg_MSGU
                  0x009666                  _msg_B0
                  0x009696                  _commit_gps_data
                  0x009714                  _scale_pwm_out
                  0x00973a                  _udb_init_pwm
                  0x00980c                  _udb_set_action_state
                  0x009828                  _start_pwm_outputs
                  0x00983e                  __T4Interrupt
                  0x00990c                  _servoMix
                  0x009a38                  _cameraServoMix
                  0x009ad8                  _udb_init_clock
                  0x009b4a                  __T1Interrupt
                  0x009bee                  _udb_background_trigger
                  0x009bf6                  __T7Interrupt
                  0x009c20                  _udb_cpu_load
                  0x009c32                  __T5Interrupt
                  0x009c50                  __T6Interrupt
                  0x009c8e                  _pitchCntrl
                  0x009caa                  _normalPitchCntrl
                  0x009d64                  _hoverPitchCntrl
                  0x009e10                  _init_behavior
                  0x009e22                  _setBehavior
                  0x009e48                  _canStabilizeInverted
                  0x009e50                  _canStabilizeHover
                  0x009e72                  _updateBehavior
                  0x009f34                  _updateTriggerAction
                  0x009f80                  _triggerActionSetValue
                  0x009f8c                  _dcm_init
                  0x009fa2                  _dcm_run_init_step
                  0x009fdc                  _udb_callback_read_sensors
                  0x009fea                  _udb_servo_callback_prepare_outputs
                  0x00a022                  _dcm_calibrate
                  0x00a036                  _dcm_set_origin_location
                  0x00a078                  _dcm_absolute_to_relative
                  0x00a0d4                  _flight_mode_switch_manual
                  0x00a0e2                  _flight_mode_switch_auto
                  0x00a0f0                  _flight_mode_switch_home
                  0x00a0fe                  _flight_mode_switch_2pos_poll
                  0x00a104                  _flight_mode_switch_check_set
                  0x00a1f0                  _register_event
                  0x00a226                  _trigger_event
                  0x00a25c                  _init_events
                  0x00a29c                  __C2Interrupt
                  0x00a2fe                  _yawCntrl
                  0x00a318                  _normalYawCntrl
                  0x00a38a                  _hoverYawCntrl
                  0x00a3e8                  _init_servoPrepare
                  0x00a452                  _dcm_servo_callback_prepare_outputs
                  0x00a4b2                  _manualPassthrough
                  0x00a4cc                  _rollCntrl
                  0x00a4e6                  _normalRollCntrl
                  0x00a530                  _hoverRollCntrl
                  0x00a562                  _udb_magnetometer_callback_data_available
                  0x00a570                  _dcm_enable_yaw_drift_correction
                  0x00a592                  _estYawDrift
                  0x00a5f4                  _cam_pitchServoLimit
                  0x00a61e                  _cam_yawServoLimit
                  0x00a648                  _set_camera_view
                  0x00a660                  _compute_camera_view
                  0x00a67e                  _cameraCntrl
                  0x00a684                  _I2C_txDsnav
                  0x00a6d0                  _I2C_rxDsnav
                  0x00a6e8                  _I2C_doneRxDsnavData
                  0x00a6f0                  _I2C_doneTxDsnavData
                  0x00a6f8                  __MathError
                  0x00a6fc                  __StackError
                  0x00a700                  __AddressError
                  0x00a704                  __OscillatorFail
                  0x00a70a                  __DMACError
                  0x00a70e                  __DefaultInterrupt
                  0x00a71e                  _main
                  0x00a742                  _testPoint
                  0xf80004                  __FGS.sec

External Symbols in Program Memory (by name):

                  0x005ab2                  _GO_CheckSum
                  0x006278                  _GO_I2C_output_yaw
                  0x005aaa                  _GO_UartRxError
                  0x005a38                  _GO_cmd_parser
                  0x005ae0                  _GO_serial_input_nav_data_S
                  0x006224                  _GO_serial_output_bin
                  0x005f52                  _GO_serial_output_dsnav_data_b
                  0x005e70                  _GO_serial_output_gps_data_G
                  0x0061fe                  _GO_serial_output_header
                  0x005c98                  _GO_serial_output_imu_data_K
                  0x00617c                  _GO_serial_output_time_data_T
                  0x0059bc                  _GO_sio_command
                  0x0059f6                  _GO_sio_data
                  0x00597c                  _GO_sio_header
                  0x0059a2                  _GO_sio_id
                  0x0059d6                  _GO_sio_lenght
                  0x0069e8                  _I2C2_CheckAvailable
                  0x006e32                  _I2C2_Failed
                  0x006a1e                  _I2C2_Normal
                  0x006bc6                  _I2C2_Read
                  0x006b12                  _I2C2_Write
                  0x006c7a                  _I2C2_checkACK
                  0x006e18                  _I2C2_doneRead
                  0x006d72                  _I2C2_doneWrite
                  0x006e12                  _I2C2_idle
                  0x0068d0                  _I2C2_init
                  0x006d9c                  _I2C2_readCommand
                  0x006d8c                  _I2C2_readStart
                  0x006db0                  _I2C2_recen
                  0x006dd8                  _I2C2_recstore
                  0x006dcc                  _I2C2_rerecen
                  0x006970                  _I2C2_reset
                  0x006a38                  _I2C2_serve_queue
                  0x006cb2                  _I2C2_startWrite
                  0x006e06                  _I2C2_stopRead
                  0x006998                  _I2C2_trigger_service
                  0x006cc2                  _I2C2_writeCommand
                  0x006cd8                  _I2C2_writeCommandData
                  0x006d26                  _I2C2_writeData
                  0x006d66                  _I2C2_writeStop
                  0x008a38                  _I2C_doneReadMagData
                  0x00a6e8                  _I2C_doneRxDsnavData
                  0x00a6f0                  _I2C_doneTxDsnavData
                  0x00a6d0                  _I2C_rxDsnav
                  0x00a684                  _I2C_txDsnav
                  0x002aa0                  _MatrixAdd
                  0x002ae0                  _MatrixMultiply
                  0x002b5a                  _MatrixScale
                  0x002b96                  _MatrixSubtract
                  0x002be4                  _MatrixTranspose
                  0x005772                  _PI_feedback
                  0x00539a                  _RotVector2RotMat
                  0x0045f6                  _TIMECONV_DetermineUTCOffset
                  0x0037c8                  _TIMECONV_GetDayOfWeekFromJulianDate
                  0x004a1c                  _TIMECONV_GetDayOfYear
                  0x003b22                  _TIMECONV_GetGPSTimeFromJulianDate
                  0x004196                  _TIMECONV_GetGPSTimeFromRinexTime
                  0x00400e                  _TIMECONV_GetGPSTimeFromUTCTime
                  0x004be6                  _TIMECONV_GetGPSTimeFromYearAndDayOfYear
                  0x0038b0                  _TIMECONV_GetJulianDateFromGPSTime
                  0x0039a0                  _TIMECONV_GetJulianDateFromUTCTime
                  0x0048ec                  _TIMECONV_GetNumberOfDaysInMonth
                  0x00442e                  _TIMECONV_GetUTCTimeFromGPSTime
                  0x0042ca                  _TIMECONV_GetUTCTimeFromGPSfix
                  0x003c70                  _TIMECONV_GetUTCTimeFromJulianDate
                  0x0049ce                  _TIMECONV_IsALeapYear
                  0x002c2c                  _VectorAdd
                  0x002c6a                  _VectorConvolve
                  0x002d62                  _VectorCopy
                  0x002d72                  _VectorCorrelate
                  0x004dd2                  _VectorCross
                  0x002da2                  _VectorDotProduct
                  0x002ddc                  _VectorMax
                  0x002df6                  _VectorMin
                  0x002e10                  _VectorMultiply
                  0x002e4c                  _VectorNegate
                  0x002e8c                  _VectorPower
                  0x002ec4                  _VectorScale
                  0x002f00                  _VectorSubtract
                  0x002f4c                  _VectorZeroPad
                  0x00a700                  __AddressError
                  0x001c3e                  __Atexit
                  0x00a29c                  __C2Interrupt
                  0x00173a                  __Closreg
                  0x00879e                  __DMA0Interrupt
                  0x00a70a                  __DMACError
                  0x000c8e                  __DNKfflush
                  0x00a70e                  __DefaultInterrupt
                  0x001c56                  __Dnorm
                  0xf80004                  __FGS.sec
                  0x000bee                  __Fwprep
                  0x00195e                  __Genld
                  0x001bc4                  __Getmem
                  0x00788e                  __IC1Interrupt
                  0x0078b2                  __IC2Interrupt
                  0x0078d6                  __IC3Interrupt
                  0x0078fa                  __IC4Interrupt
                  0x00791e                  __IC5Interrupt
                  0x007942                  __IC6Interrupt
                  0x007966                  __IC7Interrupt
                  0x00798a                  __IC8Interrupt
                  0x001840                  __LDscale
                  0x0017ec                  __LDunscale
                  0x000f92                  __Ldtob
                  0x0013f2                  __Litob
                  0x0069be                  __MI2C2Interrupt
                  0x00a6f8                  __MathError
                  0x00a704                  __OscillatorFail
                  0x0003f4                  __Printf
                  0x00078e                  __Putfld
                  0x000a76                  __Puttxt
                  0x00a6fc                  __StackError
                  0x009b4a                  __T1Interrupt
                  0x00983e                  __T4Interrupt
                  0x009c32                  __T5Interrupt
                  0x009c50                  __T6Interrupt
                  0x009bf6                  __T7Interrupt
                  0x008f2c                  __U1RXInterrupt
                  0x008ef2                  __U1TXInterrupt
                  0x009058                  __U2RXInterrupt
                  0x00901e                  __U2TXInterrupt
                  0x000778                  __Vacopy
                  0x0021be                  ___adddf3
                  0x0024fe                  ___addsf3
                  0x00060a                  ___dPrintf_cdnopsuxX
                  0x000d0c                  ___dPutfld_cdnopsuxX
                  0x000232                  ___delay32
                  0x0023f0                  ___divdf3
                  0x001f2e                  ___divdi3
                  0x001dd8                  ___divsi3
                  0x0023e2                  ___eqdf2
                  0x002180                  ___extendsfdf2
                  0x002128                  ___fixdfsi
                  0x002314                  ___fixsfsi
                  0x0024a4                  ___fixunsdfsi
                  0x0025fc                  ___floatdidf
                  0x00276a                  ___floatdisf
                  0x002038                  ___floatsidf
                  0x00230e                  ___floatsisf
                  0x0028ca                  ___floatundidf
                  0x0029f0                  ___floatundisf
                  0x0023ec                  ___floatunsidf
                  0x0024f8                  ___floatunsisf
                  0x0023d8                  ___gedf2
                  0x0023be                  ___gesf2
                  0x0023d8                  ___gtdf2
                  0x0023be                  ___gtsf2
                  0x0023e2                  ___ledf2
                  0x0023e2                  ___ltdf2
                  0x001f5e                  ___moddi3
                  0x00203e                  ___muldf3
                  0x001df6                  ___muldi3
                  0x002a8e                  ___mulp32eds3
                  0x002a8e                  ___mulp32peds3
                  0x002356                  ___mulsf3
                  0x002a8e                  ___mulsi3
                  0x0023d4                  ___subdf3
                  0x0024fc                  ___subsf3
                  0x0022b8                  ___truncdfsf2
                  0x001f18                  ___udivdi3
                  0x001e94                  ___udivmoddi3
                  0x002018                  ___udivsi3
                  0x001f26                  ___umoddi3
                  0x002a9a                  ___umodsi3
                  0x0025b8                  ___umuldi3
                  0x002a4e                  __dPropagateNaN
                  0x00024e                  __data_init
                  0x00024e                  __data_init_standard
                  0x0027f0                  __dchop
                  0x002878                  __dcompare
                  0x002920                  __dmodrem
                  0x00264e                  __dpack
                  0x0003d6                  __dprintf_cdnopsuxX
                  0x00263e                  __dreturnNaN
                  0x002a6a                  __dtype
                  0x0026a6                  __dunpack
                  0x00261c                  __dunpack2
                  0x002644                  __dunpack2exit
                  0x00279a                  __fPropagateNaN
                  0x0027ac                  __fbopExit
                  0x0027b4                  __fbopReturnNaN
                  0x0027ba                  __fcompare
                  0x00271e                  __fpack
                  0x0026f4                  __funpack
                  0x00278a                  __funpack2
                  0x000222                  __psv_init
                  0x000200                  __resetPRI
                  0x008270                  _acquiringS
                  0x004fc2                  _adj_accel
                  0x00588c                  _adjust_gyro_gain
                  0x0035d2                  _aileronbgain
                  0x00523e                  _align_rmat_to_mag
                  0x0079b6                  _altitudeCntrl
                  0x006356                  _arcsine
                  0x0033fc                  _bin_mode
                  0x0092da                  _calculate_analog_sensor_values
                  0x00825c                  _calibrateS
                  0x0058b6                  _calibrate_gyros
                  0x00a5f4                  _cam_pitchServoLimit
                  0x00a61e                  _cam_yawServoLimit
                  0x00a67e                  _cameraCntrl
                  0x009a38                  _cameraServoMix
                  0x009e50                  _canStabilizeHover
                  0x009e48                  _canStabilizeInverted
                  0x009696                  _commit_gps_data
                  0x006f34                  _compute_bearing_to_goal
                  0x00a660                  _compute_camera_view
                  0x0063f6                  _cosine
                  0x00a078                  _dcm_absolute_to_relative
                  0x00a022                  _dcm_calibrate
                  0x006e98                  _dcm_callback_gps_location_updated
                  0x00a570                  _dcm_enable_yaw_drift_correction
                  0x009f8c                  _dcm_init
                  0x004db8                  _dcm_init_rmat
                  0x00593e                  _dcm_run_imu_step
                  0x009fa2                  _dcm_run_init_step
                  0x00a452                  _dcm_servo_callback_prepare_outputs
                  0x00a036                  _dcm_set_origin_location
                  0x008bb4                  _dead_reckon
                  0x00716c                  _determine_navigation_deflection
                  0x001cf0                  _div
                  0x0035d4                  _elevatorbgain
                  0x00813e                  _ent_acquiringS
                  0x00810c                  _ent_calibrateS
                  0x00817c                  _ent_manualS
                  0x00820c                  _ent_returnS
                  0x0081aa                  _ent_stabilizedS
                  0x0081d8                  _ent_waypointS
                  0x00a592                  _estYawDrift
                  0x0092e0                  _estimateWind
                  0x0079ae                  _excess_energy_height
                  0x00174e                  _fclose
                  0x00a0fe                  _flight_mode_switch_2pos_poll
                  0x00a0e2                  _flight_mode_switch_auto
                  0x00a104                  _flight_mode_switch_check_set
                  0x00a0f0                  _flight_mode_switch_home
                  0x00a0d4                  _flight_mode_switch_manual
                  0x0075c2                  _flightplan_live_begin
                  0x00760a                  _flightplan_live_commit
                  0x0075ce                  _flightplan_live_received_byte
                  0x0023c2                  _floor
                  0x0023c2                  _floorl
                  0x0024f0                  _fmod
                  0x0024f0                  _fmodl
                  0x001bd8                  _free
                  0x000562                  _fwrite
                  0x007344                  _get_fixed_origin
                  0x00950e                  _gps_nav_valid
                  0x00951e                  _gps_startup_sequence
                  0x0083c8                  _gpsoutbin
                  0x0083e6                  _gpsoutline
                  0x005b72                  _hex_char_val
                  0x007cde                  _hoverAltitudeCntrl
                  0x009d64                  _hoverPitchCntrl
                  0x00a530                  _hoverRollCntrl
                  0x00a38a                  _hoverYawCntrl
                  0x0035b6                  _hoverpitchgain
                  0x0035b8                  _hoverpitchkd
                  0x0035c6                  _hoverrollkd
                  0x0035c4                  _hoverrollkp
                  0x0035d0                  _hoveryawkd
                  0x0035ce                  _hoveryawkp
                  0x009e10                  _init_behavior
                  0x00a25c                  _init_events
                  0x0072de                  _init_flightplan
                  0x005960                  _init_serial
                  0x00a3e8                  _init_servoPrepare
                  0x0080ba                  _init_states
                  0x001934                  _ldiv
                  0x006840                  _long_scale
                  0x005500                  _mag_drift
                  0x00a71e                  _main
                  0x0016e2                  _malloc
                  0x00a4b2                  _manualPassthrough
                  0x0082dc                  _manualS
                  0x007c96                  _manualThrottle
                  0x000c7c                  _memchr
                  0x0003e6                  _memcpy
                  0x00341a                  _mode
                  0x003418                  _mode_length
                  0x003424                  _msg41parse
                  0x009578                  _msg_A0
                  0x009596                  _msg_A2
                  0x009666                  _msg_B0
                  0x009564                  _msg_B3
                  0x0095f6                  _msg_MSG41
                  0x00963e                  _msg_MSGU
                  0x0095a6                  _msg_PL1
                  0x0095bc                  _msg_PL2
                  0x0073a6                  _next_waypoint
                  0x007a32                  _normalAltitudeCntrl
                  0x009caa                  _normalPitchCntrl
                  0x00a4e6                  _normalRollCntrl
                  0x00a318                  _normalYawCntrl
                  0x0050da                  _normalize
                  0x004f74                  _omegaSOG
                  0x009c8e                  _pitchCntrl
                  0x0035a6                  _pitch_offset_centred_pwm
                  0x0035a0                  _pitch_servo_high_ratio
                  0x0035aa                  _pitch_servo_pwm_max
                  0x0035ac                  _pitch_servo_pwm_min
                  0x0035b2                  _pitchgain
                  0x0035b4                  _pitchkd
                  0x006f12                  _process_flightplan
                  0x005280                  _quaternion_adjust
                  0x004f18                  _read_accel
                  0x004e82                  _read_gyros
                  0x00646e                  _rect_to_polar
                  0x006522                  _rect_to_polar16
                  0x00a1f0                  _register_event
                  0x00838a                  _returnS
                  0x00a4cc                  _rollCntrl
                  0x0035bc                  _rollElevMixGain
                  0x0051ea                  _roll_pitch_drift
                  0x0035c2                  _rollkd
                  0x0035cc                  _rollkdrud
                  0x0035c0                  _rollkp
                  0x0035ca                  _rollkprud
                  0x006404                  _rotate
                  0x003574                  _rtlWaypoints
                  0x0035ba                  _rudderElevMixGain
                  0x0035d6                  _rudderbgain
                  0x0074b2                  _run_flightplan
                  0x004ff0                  _rupdate
                  0x008924                  _rxMagnetometer
                  0x009714                  _scale_pwm_out
                  0x005c58                  _serial_output
                  0x0062f4                  _serial_output_8hz
                  0x0069a4                  _serviceI2C2
                  0x00990c                  _servoMix
                  0x009e22                  _setBehavior
                  0x007a26                  _setTargetAltitude
                  0x00a648                  _set_camera_view
                  0x006eb2                  _set_goal
                  0x007870                  _set_pwIn
                  0x0079d0                  _set_throttle_control
                  0x006e50                  _setup_origin
                  0x0062fa                  _sine
                  0x0034dc                  _sintab
                  0x005c0c                  _sio_fp_checksum
                  0x005ba8                  _sio_fp_data
                  0x005b12                  _sio_newMsg
                  0x005b44                  _sio_voltage_high
                  0x005b58                  _sio_voltage_low
                  0x0065fc                  _sqrt_int
                  0x006666                  _sqrt_long
                  0x008320                  _stabilizedS
                  0x008254                  _startS
                  0x009828                  _start_pwm_outputs
                  0x00077c                  _strchr
                  0x000368                  _strlen
                  0x0035a4                  _tan_pitch_in_stabilized_mode
                  0x00a742                  _testPoint
                  0x009f80                  _triggerActionSetValue
                  0x00a226                  _trigger_event
                  0x009262                  _udb_a2d_record_offsets
                  0x0080d8                  _udb_background_callback_periodic
                  0x008438                  _udb_background_callback_triggered
                  0x009bee                  _udb_background_trigger
                  0x008240                  _udb_callback_radio_did_turn_off
                  0x009fdc                  _udb_callback_read_sensors
                  0x009c20                  _udb_cpu_load
                  0x0083fe                  _udb_gps_callback_get_byte_to_send
                  0x00842a                  _udb_gps_callback_received_byte
                  0x008ec0                  _udb_gps_check_rate
                  0x008e9e                  _udb_gps_set_rate
                  0x008eea                  _udb_gps_start_sending_data
                  0x009094                  _udb_init
                  0x0086c0                  _udb_init_ADC
                  0x008e3e                  _udb_init_GPS
                  0x008f68                  _udb_init_USART
                  0x0086b0                  _udb_init_accelerometer
                  0x007626                  _udb_init_capture
                  0x009ad8                  _udb_init_clock
                  0x00867a                  _udb_init_gyros
                  0x009108                  _udb_init_leds
                  0x00973a                  _udb_init_pwm
                  0x00a562                  _udb_magnetometer_callback_data_available
                  0x009102                  _udb_run
                  0x0062cc                  _udb_serial_callback_get_byte_to_send
                  0x00596e                  _udb_serial_callback_received_byte
                  0x008fec                  _udb_serial_check_rate
                  0x008fca                  _udb_serial_set_rate
                  0x009016                  _udb_serial_start_sending_data
                  0x009fea                  _udb_servo_callback_prepare_outputs
                  0x0092ac                  _udb_servo_pulsesat
                  0x009284                  _udb_servo_record_trims
                  0x00980c                  _udb_set_action_state
                  0x009e72                  _updateBehavior
                  0x009f34                  _updateTriggerAction
                  0x006f06                  _update_goal_alt
                  0x00733c                  _use_fixed_origin
                  0x006708                  _vector2_mag
                  0x006754                  _vector2_normalize
                  0x006728                  _vector3_mag
                  0x0067b6                  _vector3_normalize
                  0x00039a                  _vsnprintf
                  0x008360                  _waypointS
                  0x00355e                  _waypoints
                  0x007164                  _wind_gain_adjustment
                  0x00358a                  _wp_inject_byte_order
                  0x007254                  _wp_to_relative
                  0x00a2fe                  _yawCntrl
                  0x0051f8                  _yaw_drift
                  0x0035a8                  _yaw_offset_centred_pwm
                  0x0035a2                  _yaw_servo_high_ratio
                  0x0035ae                  _yaw_servo_pwm_max
                  0x0035b0                  _yaw_servo_pwm_min
                  0x0035be                  _yawkdail
                  0x0035c8                  _yawkdrud
                  0x0035d8                  _yawkpail
                  0x0035da                  _yawkprud
                  0x0017d4                  fclose.XXo:_closeall
                  0x0003ba                  printf_cdnopsuxX.dXXo:_prout
                  0x000378                  vsnprint.XXo:_prout

Memory Configuration

Name             Origin             Length             Attributes
data             0x000800           0x007800           a !xr
reset            0x000000           0x000004  
ivt              0x000004           0x0000fc  
_reserved        0x000100           0x000004  
aivt             0x000104           0x0000fc  
program          0x000200           0x02a9fe           xr
FBS              0xf80000           0x000002  
FSS              0xf80002           0x000002  
FGS              0xf80004           0x000002  
FOSCSEL          0xf80006           0x000002  
FOSC             0xf80008           0x000002  
FWDT             0xf8000a           0x000002  
FPOR             0xf8000c           0x000002  
FICD             0xf8000e           0x000002  
FUID0            0xf80010           0x000002  
FUID1            0xf80012           0x000002  
FUID2            0xf80014           0x000002  
FUID3            0xf80016           0x000002  
*default*        0x000000           0xffffffff  

Linker script and memory map

LOAD build/ICD3/production/_ext/1077471063/estWind.o
LOAD build/ICD3/production/_ext/1077471063/estYawDrift.o
LOAD build/ICD3/production/_ext/1077471063/gpsParseCommon.o
LOAD build/ICD3/production/_ext/1077471063/gpsParseSTD.o
LOAD build/ICD3/production/_ext/1077471063/gpsParseUBX.o
LOAD build/ICD3/production/_ext/1077471063/mathlibNAV.o
LOAD build/ICD3/production/_ext/1077471063/rmat.o
LOAD build/ICD3/production/_ext/1077471063/libDCM.o
LOAD build/ICD3/production/_ext/1077471063/deadReckoning.o
LOAD build/ICD3/production/_ext/1077471063/gpsParseMTEK.o
LOAD build/ICD3/production/_ext/1077454706/background.o
LOAD build/ICD3/production/_ext/1077454706/libUDB.o
LOAD build/ICD3/production/_ext/1077454706/analog2digital_udb4.o
LOAD build/ICD3/production/_ext/1077454706/magneto_udb4.o
LOAD build/ICD3/production/_ext/1077454706/radioIn_udb4.o
LOAD build/ICD3/production/_ext/1077454706/servoOut.o
LOAD build/ICD3/production/_ext/1077454706/serialIO_udb4.o
LOAD build/ICD3/production/_ext/1077454706/osd.o
LOAD build/ICD3/production/_ext/1077454706/traps_udb4_asm.o
LOAD build/ICD3/production/_ext/1077454706/24LC256.o
LOAD build/ICD3/production/_ext/1077454706/events.o
LOAD build/ICD3/production/_ext/1077454706/I2C1_udb4.o
LOAD build/ICD3/production/_ext/1077454706/I2C2_udb4.o
LOAD build/ICD3/production/_ext/1077454706/dsNavI2C.o
LOAD build/ICD3/production/_ext/1472/tesPoint.o
LOAD build/ICD3/production/_ext/679848855/madd.o
LOAD build/ICD3/production/_ext/679848855/mmul.o
LOAD build/ICD3/production/_ext/679848855/mscl.o
LOAD build/ICD3/production/_ext/679848855/msub.o
LOAD build/ICD3/production/_ext/679848855/mtrp.o
LOAD build/ICD3/production/_ext/679848855/vadd.o
LOAD build/ICD3/production/_ext/679848855/vcon.o
LOAD build/ICD3/production/_ext/679848855/vcopy.o
LOAD build/ICD3/production/_ext/679848855/vcor.o
LOAD build/ICD3/production/_ext/679848855/vdot.o
LOAD build/ICD3/production/_ext/679848855/vmax.o
LOAD build/ICD3/production/_ext/679848855/vmin.o
LOAD build/ICD3/production/_ext/679848855/vmul.o
LOAD build/ICD3/production/_ext/679848855/vneg.o
LOAD build/ICD3/production/_ext/679848855/vpow.o
LOAD build/ICD3/production/_ext/679848855/vscl.o
LOAD build/ICD3/production/_ext/679848855/vsub.o
LOAD build/ICD3/production/_ext/679848855/vzpad.o
LOAD build/ICD3/production/_ext/1472/config_tests.o
LOAD build/ICD3/production/_ext/1472/behavior.o
LOAD build/ICD3/production/_ext/1472/cameraCntrl.o
LOAD build/ICD3/production/_ext/1472/main.o
LOAD build/ICD3/production/_ext/1472/navigate.o
LOAD build/ICD3/production/_ext/1472/pitchCntrl.o
LOAD build/ICD3/production/_ext/1472/rollCntrl.o
LOAD build/ICD3/production/_ext/1472/servoMix.o
LOAD build/ICD3/production/_ext/1472/states.o
LOAD build/ICD3/production/_ext/1472/yawCntrl.o
LOAD build/ICD3/production/_ext/1472/telemetry.o
LOAD build/ICD3/production/_ext/1472/servoPrepare.o
LOAD build/ICD3/production/_ext/1472/flightplan-waypoints.o
LOAD build/ICD3/production/_ext/1472/flightplan-logo.o
LOAD build/ICD3/production/_ext/1472/mp_osd.o
LOAD build/ICD3/production/_ext/1472/altitudeCntrl.o
LOAD build/ICD3/production/_ext/1472/MAVLink.o
LOAD build/ICD3/production/_ext/1472/mode_switch.o
LOAD build/ICD3/production/_ext/1472/data_services.o
LOAD build/ICD3/production/_ext/1472/data_storage.o
LOAD build/ICD3/production/_ext/1472/nv_memory_table.o
LOAD build/ICD3/production/_ext/1472/parameter_table.o
LOAD build/ICD3/production/_ext/1472/airspeedCntrl.o
LOAD build/ICD3/production/_ext/1472/altitudeCntrlVariable.o
LOAD build/ICD3/production/_ext/656130150/time_conversion.o
                    0x0001                  __MPLAB_BUILD = 0x1
LOAD /Applications/microchip/xc16/v1.11/bin/bin/../../lib/dsPIC33F/libp33FJ256GP710A-coff.a
                    0xf80000                  __FBS = 0xf80000
                    0xf80002                  __FSS = 0xf80002
                    0xf80004                  __FGS = 0xf80004
                    0xf80006                  __FOSCSEL = 0xf80006
                    0xf80008                  __FOSC = 0xf80008
                    0xf8000a                  __FWDT = 0xf8000a
                    0xf8000c                  __FPOR = 0xf8000c
                    0xf8000e                  __FICD = 0xf8000e
                    0xf80010                  __FUID0 = 0xf80010
                    0xf80012                  __FUID1 = 0xf80012
                    0xf80014                  __FUID2 = 0xf80014
                    0xf80016                  __FUID3 = 0xf80016
                    0x0004                  __IVT_BASE = 0x4
                    0x0104                  __AIVT_BASE = 0x104
                    0x0800                  __DATA_BASE = 0x800
                    0x7800                  __DATA_LENGTH = 0x7800
                    0x4800                  __YDATA_BASE = 0x4800
                    0x7800                  __DMA_BASE = 0x7800
                    0x7fff                  __DMA_END = 0x7fff
                    0x0200                  __CODE_BASE = 0x200
                    0x2aa00                  __CODE_LENGTH = 0x2aa00

.reset            0x000000          0x4
                  0x000000          0x2 SHORT 0x200 ABSOLUTE (__reset)
                  0x000001          0x2 SHORT 0x4
                  0x000002          0x2 SHORT 0x0 ((ABSOLUTE (__reset) >> 0x10) & 0x7f)
                  0x000003          0x2 SHORT 0x0

.text             0x000200       0x2d6a
 *(.init)
 .init            0x000200         0x32 /Applications/microchip/xc16/v1.11/bin/bin/../../lib/liblega-pic30-coff.a(crt0_standard.o)
                  0x000200                  _reset
                  0x000200                  _resetPRI
                  0x000222                  _psv_init
 .init            0x000232         0x1c /Applications/microchip/xc16/v1.11/bin/bin/../../lib/liblega-pic30-coff.a(delay32.Lo)
                  0x000232                  __delay32
 .init            0x00024e         0x5e /Applications/microchip/xc16/v1.11/bin/bin/../../lib/liblega-pic30-coff.a(data_init_standard.o)
                  0x00024e                  _data_init
                  0x00024e                  _data_init_standard
 *(.user_init)
 *(.handle)
 .handle          0x0002ac         0xbc jump_table
 *(.isr*)
 *(.libc)
 .libc            0x000368         0x10 /Applications/microchip/xc16/v1.11/bin/bin/../../lib/liblega-c-coff.a(strlen.XXo)
                  0x000368                  strlen
 .libc            0x000378         0x42 /Applications/microchip/xc16/v1.11/bin/bin/../../lib/liblega-c-coff.a(vsnprint.XXo)
                  0x000378                  vsnprint.XXo:_prout
                  0x00039a                  vsnprintf
 .libc            0x0003ba         0x2c /Applications/microchip/xc16/v1.11/bin/bin/../../lib/liblega-c-coff.a(printf_cdnopsuxX.dXXo)
                  0x0003ba                  printf_cdnopsuxX.dXXo:_prout
                  0x0003d6                  _dprintf_cdnopsuxX
 .libc            0x0003e6          0xe /Applications/microchip/xc16/v1.11/bin/bin/../../lib/liblega-c-coff.a(memcpy.XXo)
                  0x0003e6                  memcpy
 .libc            0x0003f4        0x16e /Applications/microchip/xc16/v1.11/bin/bin/../../lib/liblega-c-coff.a(xprintf.XXo)
                  0x0003f4                  _Printf
 .libc            0x000562         0xa8 /Applications/microchip/xc16/v1.11/bin/bin/../../lib/liblega-c-coff.a(fwrite.XXo)
                  0x000562                  fwrite
 .libc            0x00060a        0x16e /Applications/microchip/xc16/v1.11/bin/bin/../../lib/liblega-c-coff.a(xprintf_cdnopsuxX.dXXo)
                  0x00060a                  __dPrintf_cdnopsuxX
 .libc            0x000778          0x4 /Applications/microchip/xc16/v1.11/bin/bin/../../lib/liblega-c-coff.a(xvacopy.XXo)
                  0x000778                  _Vacopy
 .libc            0x00077c         0x12 /Applications/microchip/xc16/v1.11/bin/bin/../../lib/liblega-c-coff.a(strchr.XXo)
                  0x00077c                  strchr
 .libc            0x00078e        0x2e8 /Applications/microchip/xc16/v1.11/bin/bin/../../lib/liblega-c-coff.a(xputfld.XXo)
                  0x00078e                  _Putfld
 .libc            0x000a76        0x178 /Applications/microchip/xc16/v1.11/bin/bin/../../lib/liblega-c-coff.a(xputtxt.XXo)
                  0x000a76                  _Puttxt
 .libc            0x000bee         0x8e /Applications/microchip/xc16/v1.11/bin/bin/../../lib/liblega-c-coff.a(xfwprep.XXo)
                  0x000bee                  _Fwprep
 .libc            0x000c7c         0x12 /Applications/microchip/xc16/v1.11/bin/bin/../../lib/liblega-c-coff.a(memchr.XXo)
                  0x000c7c                  memchr
 .libc            0x000c8e         0x7e /Applications/microchip/xc16/v1.11/bin/bin/../../lib/liblega-c-coff.a(fflush.XXo)
                  0x000c8e                  _DNKfflush
 .libc            0x000d0c        0x286 /Applications/microchip/xc16/v1.11/bin/bin/../../lib/liblega-c-coff.a(xputfld_cdnopsuxX.dXXo)
                  0x000d0c                  __dPutfld_cdnopsuxX
 .libc            0x000f92        0x460 /Applications/microchip/xc16/v1.11/bin/bin/../../lib/liblega-c-coff.a(xldtob.XXo)
                  0x000f92                  _Ldtob
 .libc            0x0013f2        0x28c /Applications/microchip/xc16/v1.11/bin/bin/../../lib/liblega-c-coff.a(xlitob.XXo)
                  0x0013f2                  _Litob
 .libc            0x00167e         0xb8 /Applications/microchip/xc16/v1.11/bin/bin/../../lib/liblega-c-coff.a(malloc.XXo)
                  0x0016e2                  malloc
 .libc            0x001736         0xb6 /Applications/microchip/xc16/v1.11/bin/bin/../../lib/liblega-c-coff.a(fclose.XXo)
                  0x00173a                  _Closreg
                  0x00174e                  fclose
                  0x0017d4                  fclose.XXo:_closeall
 .libc            0x0017ec         0x54 /Applications/microchip/xc16/v1.11/bin/bin/../../lib/liblega-c-coff.a(xldunsca.XXo)
                  0x0017ec                  _LDunscale
 .libc            0x001840         0xf4 /Applications/microchip/xc16/v1.11/bin/bin/../../lib/liblega-c-coff.a(xldscale.XXo)
                  0x001840                  _LDscale
 .libc            0x001934         0x2a /Applications/microchip/xc16/v1.11/bin/bin/../../lib/liblega-c-coff.a(ldiv.XXo)
                  0x001934                  ldiv
 .libc            0x00195e        0x266 /Applications/microchip/xc16/v1.11/bin/bin/../../lib/liblega-c-coff.a(xgenld.XXo)
                  0x00195e                  _Genld
 .libc            0x001bc4         0x14 /Applications/microchip/xc16/v1.11/bin/bin/../../lib/liblega-c-coff.a(xgetmem.XXo)
                  0x001bc4                  _Getmem
 .libc            0x001bd8         0x66 /Applications/microchip/xc16/v1.11/bin/bin/../../lib/liblega-c-coff.a(free.XXo)
                  0x001bd8                  free
 .libc            0x001c3e         0x18 /Applications/microchip/xc16/v1.11/bin/bin/../../lib/liblega-c-coff.a(xatexit.XXo)
                  0x001c3e                  _Atexit
 .libc            0x001c56         0x9a /Applications/microchip/xc16/v1.11/bin/bin/../../lib/liblega-c-coff.a(xdnorm.XXo)
                  0x001c56                  _Dnorm
 .libc            0x001cf0         0x16 /Applications/microchip/xc16/v1.11/bin/bin/../../lib/liblega-c-coff.a(div.XXo)
                  0x001cf0                  div
 .libc            0x001d06         0x62 /Applications/microchip/xc16/v1.11/bin/bin/../../lib/liblega-pic30-coff.a(write.Lo)
                  0x001d0a                  write
 .libc            0x001d68         0x16 /Applications/microchip/xc16/v1.11/bin/bin/../../lib/liblega-pic30-coff.a(close.Lo)
                  0x001d6c                  close
 .libc            0x001d7e         0x16 /Applications/microchip/xc16/v1.11/bin/bin/../../lib/liblega-pic30-coff.a(remove.Lo)
                  0x001d82                  remove
 .libc            0x001d94         0x28 /Applications/microchip/xc16/v1.11/bin/bin/../../lib/liblega-pic30-coff.a(sbrk.Lo)
                  0x001d94                  sbrk
 .libc            0x001dbc         0x1c /Applications/microchip/xc16/v1.11/bin/bin/../../lib/liblega-pic30-coff.a(brk.Lo)
                  0x001dbc                  brk
 *(.libm)
 .libm            0x001dd8         0x1e /Applications/microchip/xc16/v1.11/bin/bin/../../lib/libm-coff.a(divsi3.o)
                  0x001dd8                  __divsi3
 .libm            0x001df6         0x52 /Applications/microchip/xc16/v1.11/bin/bin/../../lib/libm-coff.a(muldi3.o)
                  0x001df6                  __muldi3
 .libm            0x001e48        0x1d0 /Applications/microchip/xc16/v1.11/bin/bin/../../lib/libm-coff.a(divmoddi3.o)
                  0x001e94                  __udivmoddi3
                  0x001f18                  __udivdi3
                  0x001f26                  __umoddi3
                  0x001f2e                  __divdi3
                  0x001f5e                  __moddi3
 .libm            0x002018         0x20 /Applications/microchip/xc16/v1.11/bin/bin/../../lib/libm-coff.a(udivsi3.o)
                  0x002018                  __udivsi3
 .libm            0x002038          0x6 /Applications/microchip/xc16/v1.11/bin/bin/../../lib/libm-coff.a(floatsidf.o)
                  0x002038                  __floatsidf
 .libm            0x00203e         0xea /Applications/microchip/xc16/v1.11/bin/bin/../../lib/libm-coff.a(muldf3.o)
                  0x00203e                  __muldf3
 .libm            0x002128         0x58 /Applications/microchip/xc16/v1.11/bin/bin/../../lib/libm-coff.a(fixdfsi.o)
                  0x002128                  __fixdfsi
 .libm            0x002180         0x3e /Applications/microchip/xc16/v1.11/bin/bin/../../lib/libm-coff.a(extendsfdf.o)
                  0x002180                  __extendsfdf2
 .libm            0x0021be         0xfa /Applications/microchip/xc16/v1.11/bin/bin/../../lib/libm-coff.a(adddf3.o)
                  0x0021be                  __adddf3
 .libm            0x0022b8         0x56 /Applications/microchip/xc16/v1.11/bin/bin/../../lib/libm-coff.a(truncdfsf.o)
                  0x0022b8                  __truncdfsf2
 .libm            0x00230e          0x6 /Applications/microchip/xc16/v1.11/bin/bin/../../lib/libm-coff.a(floatsisf.o)
                  0x00230e                  __floatsisf
 .libm            0x002314         0x42 /Applications/microchip/xc16/v1.11/bin/bin/../../lib/libm-coff.a(fixsfsi.o)
                  0x002314                  __fixsfsi
 .libm            0x002356         0x68 /Applications/microchip/xc16/v1.11/bin/bin/../../lib/libm-coff.a(mulsf3.o)
                  0x002356                  __mulsf3
 .libm            0x0023be          0x4 /Applications/microchip/xc16/v1.11/bin/bin/../../lib/libm-coff.a(fgtge.o)
                  0x0023be                  __gtsf2
                  0x0023be                  __gesf2
 .libm            0x0023c2         0x12 /Applications/microchip/xc16/v1.11/bin/bin/../../lib/libm-coff.a(floor.o)
                  0x0023c2                  floorl
                  0x0023c2                  floor
 .libm            0x0023d4          0x4 /Applications/microchip/xc16/v1.11/bin/bin/../../lib/libm-coff.a(subdf3.o)
                  0x0023d4                  __subdf3
 .libm            0x0023d8          0xa /Applications/microchip/xc16/v1.11/bin/bin/../../lib/libm-coff.a(dgtge.o)
                  0x0023d8                  __gedf2
                  0x0023d8                  __gtdf2
 .libm            0x0023e2          0xa /Applications/microchip/xc16/v1.11/bin/bin/../../lib/libm-coff.a(deqltle.o)
                  0x0023e2                  __ledf2
                  0x0023e2                  __eqdf2
                  0x0023e2                  __ltdf2
 .libm            0x0023ec          0x4 /Applications/microchip/xc16/v1.11/bin/bin/../../lib/libm-coff.a(floatunsidf.o)
                  0x0023ec                  __floatunsidf
 .libm            0x0023f0         0xb4 /Applications/microchip/xc16/v1.11/bin/bin/../../lib/libm-coff.a(divdf3.o)
                  0x0023f0                  __divdf3
 .libm            0x0024a4         0x4c /Applications/microchip/xc16/v1.11/bin/bin/../../lib/libm-coff.a(fixunsdfsi.o)
                  0x0024a4                  __fixunsdfsi
 .libm            0x0024f0          0x8 /Applications/microchip/xc16/v1.11/bin/bin/../../lib/libm-coff.a(fmod.o)
                  0x0024f0                  fmodl
                  0x0024f0                  fmod
 .libm            0x0024f8          0x4 /Applications/microchip/xc16/v1.11/bin/bin/../../lib/libm-coff.a(floatunsisf.o)
                  0x0024f8                  __floatunsisf
 .libm            0x0024fc         0xbc /Applications/microchip/xc16/v1.11/bin/bin/../../lib/libm-coff.a(addsf3.o)
                  0x0024fc                  __subsf3
                  0x0024fe                  __addsf3
 .libm            0x0025b8         0x44 /Applications/microchip/xc16/v1.11/bin/bin/../../lib/libm-coff.a(umuldi3.o)
                  0x0025b8                  __umuldi3
 .libm            0x0025fc         0x20 /Applications/microchip/xc16/v1.11/bin/bin/../../lib/libm-coff.a(floatdidf.o)
                  0x0025fc                  __floatdidf
 .libm            0x00261c         0x32 /Applications/microchip/xc16/v1.11/bin/bin/../../lib/libm-coff.a(dunpack2.o)
                  0x00261c                  _dunpack2
                  0x00263e                  _dreturnNaN
                  0x002644                  _dunpack2exit
 .libm            0x00264e         0x58 /Applications/microchip/xc16/v1.11/bin/bin/../../lib/libm-coff.a(dpack.o)
                  0x00264e                  _dpack
 .libm            0x0026a6         0x4e /Applications/microchip/xc16/v1.11/bin/bin/../../lib/libm-coff.a(dunpack.o)
                  0x0026a6                  _dunpack
 .libm            0x0026f4         0x2a /Applications/microchip/xc16/v1.11/bin/bin/../../lib/libm-coff.a(funpack.o)
                  0x0026f4                  _funpack
 .libm            0x00271e         0x4c /Applications/microchip/xc16/v1.11/bin/bin/../../lib/libm-coff.a(fpack.o)
                  0x00271e                  _fpack
 .libm            0x00276a         0x20 /Applications/microchip/xc16/v1.11/bin/bin/../../lib/libm-coff.a(floatdisf.o)
                  0x00276a                  __floatdisf
 .libm            0x00278a         0x10 /Applications/microchip/xc16/v1.11/bin/bin/../../lib/libm-coff.a(funpack2.o)
                  0x00278a                  _funpack2
 .libm            0x00279a         0x20 /Applications/microchip/xc16/v1.11/bin/bin/../../lib/libm-coff.a(futil.o)
                  0x00279a                  _fPropagateNaN
                  0x0027ac                  _fbopExit
                  0x0027b4                  _fbopReturnNaN
 .libm            0x0027ba         0x36 /Applications/microchip/xc16/v1.11/bin/bin/../../lib/libm-coff.a(fcompare.o)
                  0x0027ba                  _fcompare
 .libm            0x0027f0         0x88 /Applications/microchip/xc16/v1.11/bin/bin/../../lib/libm-coff.a(dchop.o)
                  0x0027f0                  _dchop
 .libm            0x002878         0x52 /Applications/microchip/xc16/v1.11/bin/bin/../../lib/libm-coff.a(dcompare.o)
                  0x002878                  _dcompare
 .libm            0x0028ca         0x56 /Applications/microchip/xc16/v1.11/bin/bin/../../lib/libm-coff.a(floatundidf.o)
                  0x0028ca                  __floatundidf
 .libm            0x002920         0xd0 /Applications/microchip/xc16/v1.11/bin/bin/../../lib/libm-coff.a(dmodrem.o)
                  0x002920                  _dmodrem
 .libm            0x0029f0         0x5e /Applications/microchip/xc16/v1.11/bin/bin/../../lib/libm-coff.a(floatundisf.o)
                  0x0029f0                  __floatundisf
 .libm            0x002a4e         0x1c /Applications/microchip/xc16/v1.11/bin/bin/../../lib/libm-coff.a(dpropagateNaN.o)
                  0x002a4e                  _dPropagateNaN
 .libm            0x002a6a         0x24 /Applications/microchip/xc16/v1.11/bin/bin/../../lib/libm-coff.a(dtype.o)
                  0x002a6a                  _dtype
 .libm            0x002a8e          0xc /Applications/microchip/xc16/v1.11/bin/bin/../../lib/libm-coff.a(mulsi3.o)
                  0x002a8e                  __mulp32eds3
                  0x002a8e                  __mulp32peds3
                  0x002a8e                  __mulsi3
 .libm            0x002a9a          0x6 /Applications/microchip/xc16/v1.11/bin/bin/../../lib/libm-coff.a(umodsi3.o)
                  0x002a9a                  __umodsi3
 *(.libdsp)
 .libdsp          0x002aa0         0x40 build/ICD3/production/_ext/679848855/madd.o
                  0x002aa0                  MatrixAdd
 .libdsp          0x002ae0         0x7a build/ICD3/production/_ext/679848855/mmul.o
                  0x002ae0                  MatrixMultiply
 .libdsp          0x002b5a         0x3c build/ICD3/production/_ext/679848855/mscl.o
                  0x002b5a                  MatrixScale
 .libdsp          0x002b96         0x4e build/ICD3/production/_ext/679848855/msub.o
                  0x002b96                  MatrixSubtract
 .libdsp          0x002be4         0x48 build/ICD3/production/_ext/679848855/mtrp.o
                  0x002be4                  MatrixTranspose
 .libdsp          0x002c2c         0x3e build/ICD3/production/_ext/679848855/vadd.o
                  0x002c2c                  VectorAdd
 .libdsp          0x002c6a         0xf8 build/ICD3/production/_ext/679848855/vcon.o
                  0x002c6a                  VectorConvolve
 .libdsp          0x002d62         0x10 build/ICD3/production/_ext/679848855/vcopy.o
                  0x002d62                  VectorCopy
 .libdsp          0x002d72         0x30 build/ICD3/production/_ext/679848855/vcor.o
                  0x002d72                  VectorCorrelate
 .libdsp          0x002da2         0x3a build/ICD3/production/_ext/679848855/vdot.o
                  0x002da2                  VectorDotProduct
 .libdsp          0x002ddc         0x1a build/ICD3/production/_ext/679848855/vmax.o
                  0x002ddc                  VectorMax
 .libdsp          0x002df6         0x1a build/ICD3/production/_ext/679848855/vmin.o
                  0x002df6                  VectorMin
 .libdsp          0x002e10         0x3c build/ICD3/production/_ext/679848855/vmul.o
                  0x002e10                  VectorMultiply
 .libdsp          0x002e4c         0x40 build/ICD3/production/_ext/679848855/vneg.o
                  0x002e4c                  VectorNegate
 .libdsp          0x002e8c         0x38 build/ICD3/production/_ext/679848855/vpow.o
                  0x002e8c                  VectorPower
 .libdsp          0x002ec4         0x3c build/ICD3/production/_ext/679848855/vscl.o
                  0x002ec4                  VectorScale
 .libdsp          0x002f00         0x4c build/ICD3/production/_ext/679848855/vsub.o
                  0x002f00                  VectorSubtract
 .libdsp          0x002f4c         0x1e build/ICD3/production/_ext/679848855/vzpad.o
                  0x002f4c                  VectorZeroPad
 *(.lib*)

usercode
 *(usercode)

__FBS
 *(__FBS.sec*)

__FSS
 *(__FSS.sec*)

__FGS             0xf80004          0x2
 *(__FGS.sec*)
 __FGS.sec        0xf80004          0x2 FGS
                  0xf80004                  _FGS.sec

__FOSCSEL         0xf80006          0x2
 *(__FOSCSEL.sec*)
 __FOSCSEL.sec    0xf80006          0x2 build/ICD3/production/_ext/1077454706/libUDB.o

__FOSC            0xf80008          0x2
 *(__FOSC.sec*)
 __FOSC.sec       0xf80008          0x2 build/ICD3/production/_ext/1077454706/libUDB.o

__FWDT            0xf8000a          0x2
 *(__FWDT.sec*)
 __FWDT.sec       0xf8000a          0x2 build/ICD3/production/_ext/1077454706/libUDB.o

__FPOR            0xf8000c          0x2
 *(__FPOR.sec*)
 __FPOR.sec       0xf8000c          0x2 build/ICD3/production/_ext/1077454706/libUDB.o

__FICD            0xf8000e          0x2
 *(__FICD.sec*)
 __FICD.sec       0xf8000e          0x2 build/ICD3/production/_ext/1077454706/libUDB.o

__FUID0
 *(__FUID0.sec*)

__FUID1
 *(__FUID1.sec*)

__FUID2
 *(__FUID2.sec*)

__FUID3
 *(__FUID3.sec*)

.comment          0x000000         0x5e
 *(.comment)
 .comment         0x000000         0x5e /Applications/microchip/xc16/v1.11/bin/bin/../../lib/liblega-c-coff.a(xfiles.XXo)

.debug_info
 *(.debug_info)
 *(.gnu.linkonce.wi.*)

.debug_abbrev
 *(.debug_abbrev)

.debug_line
 *(.debug_line)

.debug_frame
 *(.debug_frame)

.debug_str
 *(.debug_str)

.debug_loc
 *(.debug_loc)

.debug_macinfo
 *(.debug_macinfo)

.debug_pubnames
 *(.debug_pubnames)

.debug_ranges
 *(.debug_ranges)

.debug_aranges
 *(.debug_aranges)

.ivt              0x000004         0xfc
                  0x000004          0x4 LONG 0xa70e DEFINED (__ReservedTrap0)?ABSOLUTE (__ReservedTrap0):ABSOLUTE (__DefaultInterrupt)
                  0x000006          0x4 LONG 0xa704 DEFINED (__OscillatorFail)?ABSOLUTE (__OscillatorFail):ABSOLUTE (__DefaultInterrupt)
                  0x000008          0x4 LONG 0xa700 DEFINED (__AddressError)?ABSOLUTE (__AddressError):ABSOLUTE (__DefaultInterrupt)
                  0x00000a          0x4 LONG 0xa6fc DEFINED (__StackError)?ABSOLUTE (__StackError):ABSOLUTE (__DefaultInterrupt)
                  0x00000c          0x4 LONG 0xa6f8 DEFINED (__MathError)?ABSOLUTE (__MathError):ABSOLUTE (__DefaultInterrupt)
                  0x00000e          0x4 LONG 0xa70a DEFINED (__DMACError)?ABSOLUTE (__DMACError):ABSOLUTE (__DefaultInterrupt)
                  0x000010          0x4 LONG 0xa70e DEFINED (__ReservedTrap6)?ABSOLUTE (__ReservedTrap6):ABSOLUTE (__DefaultInterrupt)
                  0x000012          0x4 LONG 0xa70e DEFINED (__ReservedTrap7)?ABSOLUTE (__ReservedTrap7):ABSOLUTE (__DefaultInterrupt)
                  0x000014          0x4 LONG 0xa70e DEFINED (__INT0Interrupt)?ABSOLUTE (__INT0Interrupt):ABSOLUTE (__DefaultInterrupt)
                  0x000016          0x4 LONG 0x788e DEFINED (__IC1Interrupt)?ABSOLUTE (__IC1Interrupt):ABSOLUTE (__DefaultInterrupt)
                  0x000018          0x4 LONG 0xa70e DEFINED (__OC1Interrupt)?ABSOLUTE (__OC1Interrupt):ABSOLUTE (__DefaultInterrupt)
                  0x00001a          0x4 LONG 0x9b4a DEFINED (__T1Interrupt)?ABSOLUTE (__T1Interrupt):ABSOLUTE (__DefaultInterrupt)
                  0x00001c          0x4 LONG 0x879e DEFINED (__DMA0Interrupt)?ABSOLUTE (__DMA0Interrupt):ABSOLUTE (__DefaultInterrupt)
                  0x00001e          0x4 LONG 0x78b2 DEFINED (__IC2Interrupt)?ABSOLUTE (__IC2Interrupt):ABSOLUTE (__DefaultInterrupt)
                  0x000020          0x4 LONG 0xa70e DEFINED (__OC2Interrupt)?ABSOLUTE (__OC2Interrupt):ABSOLUTE (__DefaultInterrupt)
                  0x000022          0x4 LONG 0xa70e DEFINED (__T2Interrupt)?ABSOLUTE (__T2Interrupt):ABSOLUTE (__DefaultInterrupt)
                  0x000024          0x4 LONG 0xa70e DEFINED (__T3Interrupt)?ABSOLUTE (__T3Interrupt):ABSOLUTE (__DefaultInterrupt)
                  0x000026          0x4 LONG 0xa70e DEFINED (__SPI1ErrInterrupt)?ABSOLUTE (__SPI1ErrInterrupt):ABSOLUTE (__DefaultInterrupt)
                  0x000028          0x4 LONG 0xa70e DEFINED (__SPI1Interrupt)?ABSOLUTE (__SPI1Interrupt):ABSOLUTE (__DefaultInterrupt)
                  0x00002a          0x4 LONG 0x8f2c DEFINED (__U1RXInterrupt)?ABSOLUTE (__U1RXInterrupt):ABSOLUTE (__DefaultInterrupt)
                  0x00002c          0x4 LONG 0x8ef2 DEFINED (__U1TXInterrupt)?ABSOLUTE (__U1TXInterrupt):ABSOLUTE (__DefaultInterrupt)
                  0x00002e          0x4 LONG 0xa70e DEFINED (__ADC1Interrupt)?ABSOLUTE (__ADC1Interrupt):ABSOLUTE (__DefaultInterrupt)
                  0x000030          0x4 LONG 0xa70e DEFINED (__DMA1Interrupt)?ABSOLUTE (__DMA1Interrupt):ABSOLUTE (__DefaultInterrupt)
                  0x000032          0x4 LONG 0xa70e DEFINED (__Interrupt15)?ABSOLUTE (__Interrupt15):ABSOLUTE (__DefaultInterrupt)
                  0x000034          0x4 LONG 0xa70e DEFINED (__SI2C1Interrupt)?ABSOLUTE (__SI2C1Interrupt):ABSOLUTE (__DefaultInterrupt)
                  0x000036          0x4 LONG 0xa70e DEFINED (__MI2C1Interrupt)?ABSOLUTE (__MI2C1Interrupt):ABSOLUTE (__DefaultInterrupt)
                  0x000038          0x4 LONG 0xa70e DEFINED (__Interrupt18)?ABSOLUTE (__Interrupt18):ABSOLUTE (__DefaultInterrupt)
                  0x00003a          0x4 LONG 0xa70e DEFINED (__CNInterrupt)?ABSOLUTE (__CNInterrupt):ABSOLUTE (__DefaultInterrupt)
                  0x00003c          0x4 LONG 0xa70e DEFINED (__INT1Interrupt)?ABSOLUTE (__INT1Interrupt):ABSOLUTE (__DefaultInterrupt)
                  0x00003e          0x4 LONG 0xa70e DEFINED (__ADC2Interrupt)?ABSOLUTE (__ADC2Interrupt):ABSOLUTE (__DefaultInterrupt)
                  0x000040          0x4 LONG 0x7966 DEFINED (__IC7Interrupt)?ABSOLUTE (__IC7Interrupt):ABSOLUTE (__DefaultInterrupt)
                  0x000042          0x4 LONG 0x798a DEFINED (__IC8Interrupt)?ABSOLUTE (__IC8Interrupt):ABSOLUTE (__DefaultInterrupt)
                  0x000044          0x4 LONG 0xa70e DEFINED (__DMA2Interrupt)?ABSOLUTE (__DMA2Interrupt):ABSOLUTE (__DefaultInterrupt)
                  0x000046          0x4 LONG 0xa70e DEFINED (__OC3Interrupt)?ABSOLUTE (__OC3Interrupt):ABSOLUTE (__DefaultInterrupt)
                  0x000048          0x4 LONG 0xa70e DEFINED (__OC4Interrupt)?ABSOLUTE (__OC4Interrupt):ABSOLUTE (__DefaultInterrupt)
                  0x00004a          0x4 LONG 0x983e DEFINED (__T4Interrupt)?ABSOLUTE (__T4Interrupt):ABSOLUTE (__DefaultInterrupt)
                  0x00004c          0x4 LONG 0x9c32 DEFINED (__T5Interrupt)?ABSOLUTE (__T5Interrupt):ABSOLUTE (__DefaultInterrupt)
                  0x00004e          0x4 LONG 0xa70e DEFINED (__INT2Interrupt)?ABSOLUTE (__INT2Interrupt):ABSOLUTE (__DefaultInterrupt)
                  0x000050          0x4 LONG 0x9058 DEFINED (__U2RXInterrupt)?ABSOLUTE (__U2RXInterrupt):ABSOLUTE (__DefaultInterrupt)
                  0x000052          0x4 LONG 0x901e DEFINED (__U2TXInterrupt)?ABSOLUTE (__U2TXInterrupt):ABSOLUTE (__DefaultInterrupt)
                  0x000054          0x4 LONG 0xa70e DEFINED (__SPI2ErrInterrupt)?ABSOLUTE (__SPI2ErrInterrupt):ABSOLUTE (__DefaultInterrupt)
                  0x000056          0x4 LONG 0xa70e DEFINED (__SPI2Interrupt)?ABSOLUTE (__SPI2Interrupt):ABSOLUTE (__DefaultInterrupt)
                  0x000058          0x4 LONG 0xa70e DEFINED (__C1RxRdyInterrupt)?ABSOLUTE (__C1RxRdyInterrupt):ABSOLUTE (__DefaultInterrupt)
                  0x00005a          0x4 LONG 0xa70e DEFINED (__C1Interrupt)?ABSOLUTE (__C1Interrupt):ABSOLUTE (__DefaultInterrupt)
                  0x00005c          0x4 LONG 0xa70e DEFINED (__DMA3Interrupt)?ABSOLUTE (__DMA3Interrupt):ABSOLUTE (__DefaultInterrupt)
                  0x00005e          0x4 LONG 0x78d6 DEFINED (__IC3Interrupt)?ABSOLUTE (__IC3Interrupt):ABSOLUTE (__DefaultInterrupt)
                  0x000060          0x4 LONG 0x78fa DEFINED (__IC4Interrupt)?ABSOLUTE (__IC4Interrupt):ABSOLUTE (__DefaultInterrupt)
                  0x000062          0x4 LONG 0x791e DEFINED (__IC5Interrupt)?ABSOLUTE (__IC5Interrupt):ABSOLUTE (__DefaultInterrupt)
                  0x000064          0x4 LONG 0x7942 DEFINED (__IC6Interrupt)?ABSOLUTE (__IC6Interrupt):ABSOLUTE (__DefaultInterrupt)
                  0x000066          0x4 LONG 0xa70e DEFINED (__OC5Interrupt)?ABSOLUTE (__OC5Interrupt):ABSOLUTE (__DefaultInterrupt)
                  0x000068          0x4 LONG 0xa70e DEFINED (__OC6Interrupt)?ABSOLUTE (__OC6Interrupt):ABSOLUTE (__DefaultInterrupt)
                  0x00006a          0x4 LONG 0xa70e DEFINED (__OC7Interrupt)?ABSOLUTE (__OC7Interrupt):ABSOLUTE (__DefaultInterrupt)
                  0x00006c          0x4 LONG 0xa70e DEFINED (__OC8Interrupt)?ABSOLUTE (__OC8Interrupt):ABSOLUTE (__DefaultInterrupt)
                  0x00006e          0x4 LONG 0xa70e DEFINED (__Interrupt45)?ABSOLUTE (__Interrupt45):ABSOLUTE (__DefaultInterrupt)
                  0x000070          0x4 LONG 0xa70e DEFINED (__DMA4Interrupt)?ABSOLUTE (__DMA4Interrupt):ABSOLUTE (__DefaultInterrupt)
                  0x000072          0x4 LONG 0x9c50 DEFINED (__T6Interrupt)?ABSOLUTE (__T6Interrupt):ABSOLUTE (__DefaultInterrupt)
                  0x000074          0x4 LONG 0x9bf6 DEFINED (__T7Interrupt)?ABSOLUTE (__T7Interrupt):ABSOLUTE (__DefaultInterrupt)
                  0x000076          0x4 LONG 0xa70e DEFINED (__SI2C2Interrupt)?ABSOLUTE (__SI2C2Interrupt):ABSOLUTE (__DefaultInterrupt)
                  0x000078          0x4 LONG 0x69be DEFINED (__MI2C2Interrupt)?ABSOLUTE (__MI2C2Interrupt):ABSOLUTE (__DefaultInterrupt)
                  0x00007a          0x4 LONG 0xa70e DEFINED (__T8Interrupt)?ABSOLUTE (__T8Interrupt):ABSOLUTE (__DefaultInterrupt)
                  0x00007c          0x4 LONG 0xa70e DEFINED (__T9Interrupt)?ABSOLUTE (__T9Interrupt):ABSOLUTE (__DefaultInterrupt)
                  0x00007e          0x4 LONG 0xa70e DEFINED (__INT3Interrupt)?ABSOLUTE (__INT3Interrupt):ABSOLUTE (__DefaultInterrupt)
                  0x000080          0x4 LONG 0xa70e DEFINED (__INT4Interrupt)?ABSOLUTE (__INT4Interrupt):ABSOLUTE (__DefaultInterrupt)
                  0x000082          0x4 LONG 0xa70e DEFINED (__C2RxRdyInterrupt)?ABSOLUTE (__C2RxRdyInterrupt):ABSOLUTE (__DefaultInterrupt)
                  0x000084          0x4 LONG 0xa29c DEFINED (__C2Interrupt)?ABSOLUTE (__C2Interrupt):ABSOLUTE (__DefaultInterrupt)
                  0x000086          0x4 LONG 0xa70e DEFINED (__Interrupt57)?ABSOLUTE (__Interrupt57):ABSOLUTE (__DefaultInterrupt)
                  0x000088          0x4 LONG 0xa70e DEFINED (__Interrupt58)?ABSOLUTE (__Interrupt58):ABSOLUTE (__DefaultInterrupt)
                  0x00008a          0x4 LONG 0xa70e DEFINED (__DCIErrInterrupt)?ABSOLUTE (__DCIErrInterrupt):ABSOLUTE (__DefaultInterrupt)
                  0x00008c          0x4 LONG 0xa70e DEFINED (__DCIInterrupt)?ABSOLUTE (__DCIInterrupt):ABSOLUTE (__DefaultInterrupt)
                  0x00008e          0x4 LONG 0xa70e DEFINED (__DMA5Interrupt)?ABSOLUTE (__DMA5Interrupt):ABSOLUTE (__DefaultInterrupt)
                  0x000090          0x4 LONG 0xa70e DEFINED (__Interrupt62)?ABSOLUTE (__Interrupt62):ABSOLUTE (__DefaultInterrupt)
                  0x000092          0x4 LONG 0xa70e DEFINED (__Interrupt63)?ABSOLUTE (__Interrupt63):ABSOLUTE (__DefaultInterrupt)
                  0x000094          0x4 LONG 0xa70e DEFINED (__Interrupt64)?ABSOLUTE (__Interrupt64):ABSOLUTE (__DefaultInterrupt)
                  0x000096          0x4 LONG 0xa70e DEFINED (__U1ErrInterrupt)?ABSOLUTE (__U1ErrInterrupt):ABSOLUTE (__DefaultInterrupt)
                  0x000098          0x4 LONG 0xa70e DEFINED (__U2ErrInterrupt)?ABSOLUTE (__U2ErrInterrupt):ABSOLUTE (__DefaultInterrupt)
                  0x00009a          0x4 LONG 0xa70e DEFINED (__Interrupt67)?ABSOLUTE (__Interrupt67):ABSOLUTE (__DefaultInterrupt)
                  0x00009c          0x4 LONG 0xa70e DEFINED (__DMA6Interrupt)?ABSOLUTE (__DMA6Interrupt):ABSOLUTE (__DefaultInterrupt)
                  0x00009e          0x4 LONG 0xa70e DEFINED (__DMA7Interrupt)?ABSOLUTE (__DMA7Interrupt):ABSOLUTE (__DefaultInterrupt)
                  0x0000a0          0x4 LONG 0xa70e DEFINED (__C1TxReqInterrupt)?ABSOLUTE (__C1TxReqInterrupt):ABSOLUTE (__DefaultInterrupt)
                  0x0000a2          0x4 LONG 0xa70e DEFINED (__C2TxReqInterrupt)?ABSOLUTE (__C2TxReqInterrupt):ABSOLUTE (__DefaultInterrupt)
                  0x0000a4          0x4 LONG 0xa70e DEFINED (__Interrupt72)?ABSOLUTE (__Interrupt72):ABSOLUTE (__DefaultInterrupt)
                  0x0000a6          0x4 LONG 0xa70e DEFINED (__Interrupt73)?ABSOLUTE (__Interrupt73):ABSOLUTE (__DefaultInterrupt)
                  0x0000a8          0x4 LONG 0xa70e DEFINED (__Interrupt74)?ABSOLUTE (__Interrupt74):ABSOLUTE (__DefaultInterrupt)
                  0x0000aa          0x4 LONG 0xa70e DEFINED (__Interrupt75)?ABSOLUTE (__Interrupt75):ABSOLUTE (__DefaultInterrupt)
                  0x0000ac          0x4 LONG 0xa70e DEFINED (__Interrupt76)?ABSOLUTE (__Interrupt76):ABSOLUTE (__DefaultInterrupt)
                  0x0000ae          0x4 LONG 0xa70e DEFINED (__Interrupt77)?ABSOLUTE (__Interrupt77):ABSOLUTE (__DefaultInterrupt)
                  0x0000b0          0x4 LONG 0xa70e DEFINED (__Interrupt78)?ABSOLUTE (__Interrupt78):ABSOLUTE (__DefaultInterrupt)
                  0x0000b2          0x4 LONG 0xa70e DEFINED (__Interrupt79)?ABSOLUTE (__Interrupt79):ABSOLUTE (__DefaultInterrupt)
                  0x0000b4          0x4 LONG 0xa70e DEFINED (__Interrupt80)?ABSOLUTE (__Interrupt80):ABSOLUTE (__DefaultInterrupt)
                  0x0000b6          0x4 LONG 0xa70e DEFINED (__Interrupt81)?ABSOLUTE (__Interrupt81):ABSOLUTE (__DefaultInterrupt)
                  0x0000b8          0x4 LONG 0xa70e DEFINED (__Interrupt82)?ABSOLUTE (__Interrupt82):ABSOLUTE (__DefaultInterrupt)
                  0x0000ba          0x4 LONG 0xa70e DEFINED (__Interrupt83)?ABSOLUTE (__Interrupt83):ABSOLUTE (__DefaultInterrupt)
                  0x0000bc          0x4 LONG 0xa70e DEFINED (__Interrupt84)?ABSOLUTE (__Interrupt84):ABSOLUTE (__DefaultInterrupt)
                  0x0000be          0x4 LONG 0xa70e DEFINED (__Interrupt85)?ABSOLUTE (__Interrupt85):ABSOLUTE (__DefaultInterrupt)
                  0x0000c0          0x4 LONG 0xa70e DEFINED (__Interrupt86)?ABSOLUTE (__Interrupt86):ABSOLUTE (__DefaultInterrupt)
                  0x0000c2          0x4 LONG 0xa70e DEFINED (__Interrupt87)?ABSOLUTE (__Interrupt87):ABSOLUTE (__DefaultInterrupt)
                  0x0000c4          0x4 LONG 0xa70e DEFINED (__Interrupt88)?ABSOLUTE (__Interrupt88):ABSOLUTE (__DefaultInterrupt)
                  0x0000c6          0x4 LONG 0xa70e DEFINED (__Interrupt89)?ABSOLUTE (__Interrupt89):ABSOLUTE (__DefaultInterrupt)
                  0x0000c8          0x4 LONG 0xa70e DEFINED (__Interrupt90)?ABSOLUTE (__Interrupt90):ABSOLUTE (__DefaultInterrupt)
                  0x0000ca          0x4 LONG 0xa70e DEFINED (__Interrupt91)?ABSOLUTE (__Interrupt91):ABSOLUTE (__DefaultInterrupt)
                  0x0000cc          0x4 LONG 0xa70e DEFINED (__Interrupt92)?ABSOLUTE (__Interrupt92):ABSOLUTE (__DefaultInterrupt)
                  0x0000ce          0x4 LONG 0xa70e DEFINED (__Interrupt93)?ABSOLUTE (__Interrupt93):ABSOLUTE (__DefaultInterrupt)
                  0x0000d0          0x4 LONG 0xa70e DEFINED (__Interrupt94)?ABSOLUTE (__Interrupt94):ABSOLUTE (__DefaultInterrupt)
                  0x0000d2          0x4 LONG 0xa70e DEFINED (__Interrupt95)?ABSOLUTE (__Interrupt95):ABSOLUTE (__DefaultInterrupt)
                  0x0000d4          0x4 LONG 0xa70e DEFINED (__Interrupt96)?ABSOLUTE (__Interrupt96):ABSOLUTE (__DefaultInterrupt)
                  0x0000d6          0x4 LONG 0xa70e DEFINED (__Interrupt97)?ABSOLUTE (__Interrupt97):ABSOLUTE (__DefaultInterrupt)
                  0x0000d8          0x4 LONG 0xa70e DEFINED (__Interrupt98)?ABSOLUTE (__Interrupt98):ABSOLUTE (__DefaultInterrupt)
                  0x0000da          0x4 LONG 0xa70e DEFINED (__Interrupt99)?ABSOLUTE (__Interrupt99):ABSOLUTE (__DefaultInterrupt)
                  0x0000dc          0x4 LONG 0xa70e DEFINED (__Interrupt100)?ABSOLUTE (__Interrupt100):ABSOLUTE (__DefaultInterrupt)
                  0x0000de          0x4 LONG 0xa70e DEFINED (__Interrupt101)?ABSOLUTE (__Interrupt101):ABSOLUTE (__DefaultInterrupt)
                  0x0000e0          0x4 LONG 0xa70e DEFINED (__Interrupt102)?ABSOLUTE (__Interrupt102):ABSOLUTE (__DefaultInterrupt)
                  0x0000e2          0x4 LONG 0xa70e DEFINED (__Interrupt103)?ABSOLUTE (__Interrupt103):ABSOLUTE (__DefaultInterrupt)
                  0x0000e4          0x4 LONG 0xa70e DEFINED (__Interrupt104)?ABSOLUTE (__Interrupt104):ABSOLUTE (__DefaultInterrupt)
                  0x0000e6          0x4 LONG 0xa70e DEFINED (__Interrupt105)?ABSOLUTE (__Interrupt105):ABSOLUTE (__DefaultInterrupt)
                  0x0000e8          0x4 LONG 0xa70e DEFINED (__Interrupt106)?ABSOLUTE (__Interrupt106):ABSOLUTE (__DefaultInterrupt)
                  0x0000ea          0x4 LONG 0xa70e DEFINED (__Interrupt107)?ABSOLUTE (__Interrupt107):ABSOLUTE (__DefaultInterrupt)
                  0x0000ec          0x4 LONG 0xa70e DEFINED (__Interrupt108)?ABSOLUTE (__Interrupt108):ABSOLUTE (__DefaultInterrupt)
                  0x0000ee          0x4 LONG 0xa70e DEFINED (__Interrupt109)?ABSOLUTE (__Interrupt109):ABSOLUTE (__DefaultInterrupt)
                  0x0000f0          0x4 LONG 0xa70e DEFINED (__Interrupt110)?ABSOLUTE (__Interrupt110):ABSOLUTE (__DefaultInterrupt)
                  0x0000f2          0x4 LONG 0xa70e DEFINED (__Interrupt111)?ABSOLUTE (__Interrupt111):ABSOLUTE (__DefaultInterrupt)
                  0x0000f4          0x4 LONG 0xa70e DEFINED (__Interrupt112)?ABSOLUTE (__Interrupt112):ABSOLUTE (__DefaultInterrupt)
                  0x0000f6          0x4 LONG 0xa70e DEFINED (__Interrupt113)?ABSOLUTE (__Interrupt113):ABSOLUTE (__DefaultInterrupt)
                  0x0000f8          0x4 LONG 0xa70e DEFINED (__Interrupt114)?ABSOLUTE (__Interrupt114):ABSOLUTE (__DefaultInterrupt)
                  0x0000fa          0x4 LONG 0xa70e DEFINED (__Interrupt115)?ABSOLUTE (__Interrupt115):ABSOLUTE (__DefaultInterrupt)
                  0x0000fc          0x4 LONG 0xa70e DEFINED (__Interrupt116)?ABSOLUTE (__Interrupt116):ABSOLUTE (__DefaultInterrupt)
                  0x0000fe          0x4 LONG 0xa70e DEFINED (__Interrupt117)?ABSOLUTE (__Interrupt117):ABSOLUTE (__DefaultInterrupt)

.aivt             0x000104         0xfc
                  0x000104          0x4 LONG 0xa70e DEFINED (__AltReservedTrap0)?ABSOLUTE (__AltReservedTrap0):DEFINED (__ReservedTrap0)?ABSOLUTE (__ReservedTrap0):ABSOLUTE (__DefaultInterrupt)
                  0x000106          0x4 LONG 0xa704 DEFINED (__AltOscillatorFail)?ABSOLUTE (__AltOscillatorFail):DEFINED (__OscillatorFail)?ABSOLUTE (__OscillatorFail):ABSOLUTE (__DefaultInterrupt)
                  0x000108          0x4 LONG 0xa700 DEFINED (__AltAddressError)?ABSOLUTE (__AltAddressError):DEFINED (__AddressError)?ABSOLUTE (__AddressError):ABSOLUTE (__DefaultInterrupt)
                  0x00010a          0x4 LONG 0xa6fc DEFINED (__AltStackError)?ABSOLUTE (__AltStackError):DEFINED (__StackError)?ABSOLUTE (__StackError):ABSOLUTE (__DefaultInterrupt)
                  0x00010c          0x4 LONG 0xa6f8 DEFINED (__AltMathError)?ABSOLUTE (__AltMathError):DEFINED (__MathError)?ABSOLUTE (__MathError):ABSOLUTE (__DefaultInterrupt)
                  0x00010e          0x4 LONG 0xa70a DEFINED (__AltDMACError)?ABSOLUTE (__AltDMACError):DEFINED (__DMACError)?ABSOLUTE (__DMACError):ABSOLUTE (__DefaultInterrupt)
                  0x000110          0x4 LONG 0xa70e DEFINED (__AltReservedTrap6)?ABSOLUTE (__AltReservedTrap6):DEFINED (__ReservedTrap6)?ABSOLUTE (__ReservedTrap6):ABSOLUTE (__DefaultInterrupt)
                  0x000112          0x4 LONG 0xa70e DEFINED (__AltReservedTrap7)?ABSOLUTE (__AltReservedTrap7):DEFINED (__ReservedTrap7)?ABSOLUTE (__ReservedTrap7):ABSOLUTE (__DefaultInterrupt)
                  0x000114          0x4 LONG 0xa70e DEFINED (__AltINT0Interrupt)?ABSOLUTE (__AltINT0Interrupt):DEFINED (__INT0Interrupt)?ABSOLUTE (__INT0Interrupt):ABSOLUTE (__DefaultInterrupt)
                  0x000116          0x4 LONG 0x788e DEFINED (__AltIC1Interrupt)?ABSOLUTE (__AltIC1Interrupt):DEFINED (__IC1Interrupt)?ABSOLUTE (__IC1Interrupt):ABSOLUTE (__DefaultInterrupt)
                  0x000118          0x4 LONG 0xa70e DEFINED (__AltOC1Interrupt)?ABSOLUTE (__AltOC1Interrupt):DEFINED (__OC1Interrupt)?ABSOLUTE (__OC1Interrupt):ABSOLUTE (__DefaultInterrupt)
                  0x00011a          0x4 LONG 0x9b4a DEFINED (__AltT1Interrupt)?ABSOLUTE (__AltT1Interrupt):DEFINED (__T1Interrupt)?ABSOLUTE (__T1Interrupt):ABSOLUTE (__DefaultInterrupt)
                  0x00011c          0x4 LONG 0x879e DEFINED (__AltDMA0Interrupt)?ABSOLUTE (__AltDMA0Interrupt):DEFINED (__DMA0Interrupt)?ABSOLUTE (__DMA0Interrupt):ABSOLUTE (__DefaultInterrupt)
                  0x00011e          0x4 LONG 0x78b2 DEFINED (__AltIC2Interrupt)?ABSOLUTE (__AltIC2Interrupt):DEFINED (__IC2Interrupt)?ABSOLUTE (__IC2Interrupt):ABSOLUTE (__DefaultInterrupt)
                  0x000120          0x4 LONG 0xa70e DEFINED (__AltOC2Interrupt)?ABSOLUTE (__AltOC2Interrupt):DEFINED (__OC2Interrupt)?ABSOLUTE (__OC2Interrupt):ABSOLUTE (__DefaultInterrupt)
                  0x000122          0x4 LONG 0xa70e DEFINED (__AltT2Interrupt)?ABSOLUTE (__AltT2Interrupt):DEFINED (__T2Interrupt)?ABSOLUTE (__T2Interrupt):ABSOLUTE (__DefaultInterrupt)
                  0x000124          0x4 LONG 0xa70e DEFINED (__AltT3Interrupt)?ABSOLUTE (__AltT3Interrupt):DEFINED (__T3Interrupt)?ABSOLUTE (__T3Interrupt):ABSOLUTE (__DefaultInterrupt)
                  0x000126          0x4 LONG 0xa70e DEFINED (__AltSPI1ErrInterrupt)?ABSOLUTE (__AltSPI1ErrInterrupt):DEFINED (__SPI1ErrInterrupt)?ABSOLUTE (__SPI1ErrInterrupt):ABSOLUTE (__DefaultInterrupt)
                  0x000128          0x4 LONG 0xa70e DEFINED (__AltSPI1Interrupt)?ABSOLUTE (__AltSPI1Interrupt):DEFINED (__SPI1Interrupt)?ABSOLUTE (__SPI1Interrupt):ABSOLUTE (__DefaultInterrupt)
                  0x00012a          0x4 LONG 0x8f2c DEFINED (__AltU1RXInterrupt)?ABSOLUTE (__AltU1RXInterrupt):DEFINED (__U1RXInterrupt)?ABSOLUTE (__U1RXInterrupt):ABSOLUTE (__DefaultInterrupt)
                  0x00012c          0x4 LONG 0x8ef2 DEFINED (__AltU1TXInterrupt)?ABSOLUTE (__AltU1TXInterrupt):DEFINED (__U1TXInterrupt)?ABSOLUTE (__U1TXInterrupt):ABSOLUTE (__DefaultInterrupt)
                  0x00012e          0x4 LONG 0xa70e DEFINED (__AltADC1Interrupt)?ABSOLUTE (__AltADC1Interrupt):DEFINED (__ADC1Interrupt)?ABSOLUTE (__ADC1Interrupt):ABSOLUTE (__DefaultInterrupt)
                  0x000130          0x4 LONG 0xa70e DEFINED (__AltDMA1Interrupt)?ABSOLUTE (__AltDMA1Interrupt):DEFINED (__DMA1Interrupt)?ABSOLUTE (__DMA1Interrupt):ABSOLUTE (__DefaultInterrupt)
                  0x000132          0x4 LONG 0xa70e DEFINED (__AltInterrupt15)?ABSOLUTE (__AltInterrupt15):DEFINED (__Interrupt15)?ABSOLUTE (__Interrupt15):ABSOLUTE (__DefaultInterrupt)
                  0x000134          0x4 LONG 0xa70e DEFINED (__AltSI2C1Interrupt)?ABSOLUTE (__AltSI2C1Interrupt):DEFINED (__SI2C1Interrupt)?ABSOLUTE (__SI2C1Interrupt):ABSOLUTE (__DefaultInterrupt)
                  0x000136          0x4 LONG 0xa70e DEFINED (__AltMI2C1Interrupt)?ABSOLUTE (__AltMI2C1Interrupt):DEFINED (__MI2C1Interrupt)?ABSOLUTE (__MI2C1Interrupt):ABSOLUTE (__DefaultInterrupt)
                  0x000138          0x4 LONG 0xa70e DEFINED (__AltInterrupt18)?ABSOLUTE (__AltInterrupt18):DEFINED (__Interrupt18)?ABSOLUTE (__Interrupt18):ABSOLUTE (__DefaultInterrupt)
                  0x00013a          0x4 LONG 0xa70e DEFINED (__AltCNInterrupt)?ABSOLUTE (__AltCNInterrupt):DEFINED (__CNInterrupt)?ABSOLUTE (__CNInterrupt):ABSOLUTE (__DefaultInterrupt)
                  0x00013c          0x4 LONG 0xa70e DEFINED (__AltINT1Interrupt)?ABSOLUTE (__AltINT1Interrupt):DEFINED (__INT1Interrupt)?ABSOLUTE (__INT1Interrupt):ABSOLUTE (__DefaultInterrupt)
                  0x00013e          0x4 LONG 0xa70e DEFINED (__AltADC2Interrupt)?ABSOLUTE (__AltADC2Interrupt):DEFINED (__ADC2Interrupt)?ABSOLUTE (__ADC2Interrupt):ABSOLUTE (__DefaultInterrupt)
                  0x000140          0x4 LONG 0x7966 DEFINED (__AltIC7Interrupt)?ABSOLUTE (__AltIC7Interrupt):DEFINED (__IC7Interrupt)?ABSOLUTE (__IC7Interrupt):ABSOLUTE (__DefaultInterrupt)
                  0x000142          0x4 LONG 0x798a DEFINED (__AltIC8Interrupt)?ABSOLUTE (__AltIC8Interrupt):DEFINED (__IC8Interrupt)?ABSOLUTE (__IC8Interrupt):ABSOLUTE (__DefaultInterrupt)
                  0x000144          0x4 LONG 0xa70e DEFINED (__AltDMA2Interrupt)?ABSOLUTE (__AltDMA2Interrupt):DEFINED (__DMA2Interrupt)?ABSOLUTE (__DMA2Interrupt):ABSOLUTE (__DefaultInterrupt)
                  0x000146          0x4 LONG 0xa70e DEFINED (__AltOC3Interrupt)?ABSOLUTE (__AltOC3Interrupt):DEFINED (__OC3Interrupt)?ABSOLUTE (__OC3Interrupt):ABSOLUTE (__DefaultInterrupt)
                  0x000148          0x4 LONG 0xa70e DEFINED (__AltOC4Interrupt)?ABSOLUTE (__AltOC4Interrupt):DEFINED (__OC4Interrupt)?ABSOLUTE (__OC4Interrupt):ABSOLUTE (__DefaultInterrupt)
                  0x00014a          0x4 LONG 0x983e DEFINED (__AltT4Interrupt)?ABSOLUTE (__AltT4Interrupt):DEFINED (__T4Interrupt)?ABSOLUTE (__T4Interrupt):ABSOLUTE (__DefaultInterrupt)
                  0x00014c          0x4 LONG 0x9c32 DEFINED (__AltT5Interrupt)?ABSOLUTE (__AltT5Interrupt):DEFINED (__T5Interrupt)?ABSOLUTE (__T5Interrupt):ABSOLUTE (__DefaultInterrupt)
                  0x00014e          0x4 LONG 0xa70e DEFINED (__AltINT2Interrupt)?ABSOLUTE (__AltINT2Interrupt):DEFINED (__INT2Interrupt)?ABSOLUTE (__INT2Interrupt):ABSOLUTE (__DefaultInterrupt)
                  0x000150          0x4 LONG 0x9058 DEFINED (__AltU2RXInterrupt)?ABSOLUTE (__AltU2RXInterrupt):DEFINED (__U2RXInterrupt)?ABSOLUTE (__U2RXInterrupt):ABSOLUTE (__DefaultInterrupt)
                  0x000152          0x4 LONG 0x901e DEFINED (__AltU2TXInterrupt)?ABSOLUTE (__AltU2TXInterrupt):DEFINED (__U2TXInterrupt)?ABSOLUTE (__U2TXInterrupt):ABSOLUTE (__DefaultInterrupt)
                  0x000154          0x4 LONG 0xa70e DEFINED (__AltSPI2ErrInterrupt)?ABSOLUTE (__AltSPI2ErrInterrupt):DEFINED (__SPI2ErrInterrupt)?ABSOLUTE (__SPI2ErrInterrupt):ABSOLUTE (__DefaultInterrupt)
                  0x000156          0x4 LONG 0xa70e DEFINED (__AltSPI2Interrupt)?ABSOLUTE (__AltSPI2Interrupt):DEFINED (__SPI2Interrupt)?ABSOLUTE (__SPI2Interrupt):ABSOLUTE (__DefaultInterrupt)
                  0x000158          0x4 LONG 0xa70e DEFINED (__AltC1RxRdyInterrupt)?ABSOLUTE (__AltC1RxRdyInterrupt):DEFINED (__C1RxRdyInterrupt)?ABSOLUTE (__C1RxRdyInterrupt):ABSOLUTE (__DefaultInterrupt)
                  0x00015a          0x4 LONG 0xa70e DEFINED (__AltC1Interrupt)?ABSOLUTE (__AltC1Interrupt):DEFINED (__C1Interrupt)?ABSOLUTE (__C1Interrupt):ABSOLUTE (__DefaultInterrupt)
                  0x00015c          0x4 LONG 0xa70e DEFINED (__AltDMA3Interrupt)?ABSOLUTE (__AltDMA3Interrupt):DEFINED (__DMA3Interrupt)?ABSOLUTE (__DMA3Interrupt):ABSOLUTE (__DefaultInterrupt)
                  0x00015e          0x4 LONG 0x78d6 DEFINED (__AltIC3Interrupt)?ABSOLUTE (__AltIC3Interrupt):DEFINED (__IC3Interrupt)?ABSOLUTE (__IC3Interrupt):ABSOLUTE (__DefaultInterrupt)
                  0x000160          0x4 LONG 0x78fa DEFINED (__AltIC4Interrupt)?ABSOLUTE (__AltIC4Interrupt):DEFINED (__IC4Interrupt)?ABSOLUTE (__IC4Interrupt):ABSOLUTE (__DefaultInterrupt)
                  0x000162          0x4 LONG 0x791e DEFINED (__AltIC5Interrupt)?ABSOLUTE (__AltIC5Interrupt):DEFINED (__IC5Interrupt)?ABSOLUTE (__IC5Interrupt):ABSOLUTE (__DefaultInterrupt)
                  0x000164          0x4 LONG 0x7942 DEFINED (__AltIC6Interrupt)?ABSOLUTE (__AltIC6Interrupt):DEFINED (__IC6Interrupt)?ABSOLUTE (__IC6Interrupt):ABSOLUTE (__DefaultInterrupt)
                  0x000166          0x4 LONG 0xa70e DEFINED (__AltOC5Interrupt)?ABSOLUTE (__AltOC5Interrupt):DEFINED (__OC5Interrupt)?ABSOLUTE (__OC5Interrupt):ABSOLUTE (__DefaultInterrupt)
                  0x000168          0x4 LONG 0xa70e DEFINED (__AltOC6Interrupt)?ABSOLUTE (__AltOC6Interrupt):DEFINED (__OC6Interrupt)?ABSOLUTE (__OC6Interrupt):ABSOLUTE (__DefaultInterrupt)
                  0x00016a          0x4 LONG 0xa70e DEFINED (__AltOC7Interrupt)?ABSOLUTE (__AltOC7Interrupt):DEFINED (__OC7Interrupt)?ABSOLUTE (__OC7Interrupt):ABSOLUTE (__DefaultInterrupt)
                  0x00016c          0x4 LONG 0xa70e DEFINED (__AltOC8Interrupt)?ABSOLUTE (__AltOC8Interrupt):DEFINED (__OC8Interrupt)?ABSOLUTE (__OC8Interrupt):ABSOLUTE (__DefaultInterrupt)
                  0x00016e          0x4 LONG 0xa70e DEFINED (__AltInterrupt45)?ABSOLUTE (__AltInterrupt45):DEFINED (__Interrupt45)?ABSOLUTE (__Interrupt45):ABSOLUTE (__DefaultInterrupt)
                  0x000170          0x4 LONG 0xa70e DEFINED (__AltDMA4Interrupt)?ABSOLUTE (__AltDMA4Interrupt):DEFINED (__DMA4Interrupt)?ABSOLUTE (__DMA4Interrupt):ABSOLUTE (__DefaultInterrupt)
                  0x000172          0x4 LONG 0x9c50 DEFINED (__AltT6Interrupt)?ABSOLUTE (__AltT6Interrupt):DEFINED (__T6Interrupt)?ABSOLUTE (__T6Interrupt):ABSOLUTE (__DefaultInterrupt)
                  0x000174          0x4 LONG 0x9bf6 DEFINED (__AltT7Interrupt)?ABSOLUTE (__AltT7Interrupt):DEFINED (__T7Interrupt)?ABSOLUTE (__T7Interrupt):ABSOLUTE (__DefaultInterrupt)
                  0x000176          0x4 LONG 0xa70e DEFINED (__AltSI2C2Interrupt)?ABSOLUTE (__AltSI2C2Interrupt):DEFINED (__SI2C2Interrupt)?ABSOLUTE (__SI2C2Interrupt):ABSOLUTE (__DefaultInterrupt)
                  0x000178          0x4 LONG 0x69be DEFINED (__AltMI2C2Interrupt)?ABSOLUTE (__AltMI2C2Interrupt):DEFINED (__MI2C2Interrupt)?ABSOLUTE (__MI2C2Interrupt):ABSOLUTE (__DefaultInterrupt)
                  0x00017a          0x4 LONG 0xa70e DEFINED (__AltT8Interrupt)?ABSOLUTE (__AltT8Interrupt):DEFINED (__T8Interrupt)?ABSOLUTE (__T8Interrupt):ABSOLUTE (__DefaultInterrupt)
                  0x00017c          0x4 LONG 0xa70e DEFINED (__AltT9Interrupt)?ABSOLUTE (__AltT9Interrupt):DEFINED (__T9Interrupt)?ABSOLUTE (__T9Interrupt):ABSOLUTE (__DefaultInterrupt)
                  0x00017e          0x4 LONG 0xa70e DEFINED (__AltINT3Interrupt)?ABSOLUTE (__AltINT3Interrupt):DEFINED (__INT3Interrupt)?ABSOLUTE (__INT3Interrupt):ABSOLUTE (__DefaultInterrupt)
                  0x000180          0x4 LONG 0xa70e DEFINED (__AltINT4Interrupt)?ABSOLUTE (__AltINT4Interrupt):DEFINED (__INT4Interrupt)?ABSOLUTE (__INT4Interrupt):ABSOLUTE (__DefaultInterrupt)
                  0x000182          0x4 LONG 0xa70e DEFINED (__AltC2RxRdyInterrupt)?ABSOLUTE (__AltC2RxRdyInterrupt):DEFINED (__C2RxRdyInterrupt)?ABSOLUTE (__C2RxRdyInterrupt):ABSOLUTE (__DefaultInterrupt)
                  0x000184          0x4 LONG 0xa29c DEFINED (__AltC2Interrupt)?ABSOLUTE (__AltC2Interrupt):DEFINED (__C2Interrupt)?ABSOLUTE (__C2Interrupt):ABSOLUTE (__DefaultInterrupt)
                  0x000186          0x4 LONG 0xa70e DEFINED (__AltInterrupt57)?ABSOLUTE (__AltInterrupt57):DEFINED (__Interrupt57)?ABSOLUTE (__Interrupt57):ABSOLUTE (__DefaultInterrupt)
                  0x000188          0x4 LONG 0xa70e DEFINED (__AltInterrupt58)?ABSOLUTE (__AltInterrupt58):DEFINED (__Interrupt58)?ABSOLUTE (__Interrupt58):ABSOLUTE (__DefaultInterrupt)
                  0x00018a          0x4 LONG 0xa70e DEFINED (__AltDCIErrInterrupt)?ABSOLUTE (__AltDCIErrInterrupt):DEFINED (__DCIErrInterrupt)?ABSOLUTE (__DCIErrInterrupt):ABSOLUTE (__DefaultInterrupt)
                  0x00018c          0x4 LONG 0xa70e DEFINED (__AltDCIInterrupt)?ABSOLUTE (__AltDCIInterrupt):DEFINED (__DCIInterrupt)?ABSOLUTE (__DCIInterrupt):ABSOLUTE (__DefaultInterrupt)
                  0x00018e          0x4 LONG 0xa70e DEFINED (__AltDMA5Interrupt)?ABSOLUTE (__AltDMA5Interrupt):DEFINED (__DMA5Interrupt)?ABSOLUTE (__DMA5Interrupt):ABSOLUTE (__DefaultInterrupt)
                  0x000190          0x4 LONG 0xa70e DEFINED (__AltInterrupt62)?ABSOLUTE (__AltInterrupt62):DEFINED (__Interrupt62)?ABSOLUTE (__Interrupt62):ABSOLUTE (__DefaultInterrupt)
                  0x000192          0x4 LONG 0xa70e DEFINED (__AltInterrupt63)?ABSOLUTE (__AltInterrupt63):DEFINED (__Interrupt63)?ABSOLUTE (__Interrupt63):ABSOLUTE (__DefaultInterrupt)
                  0x000194          0x4 LONG 0xa70e DEFINED (__AltInterrupt64)?ABSOLUTE (__AltInterrupt64):DEFINED (__Interrupt64)?ABSOLUTE (__Interrupt64):ABSOLUTE (__DefaultInterrupt)
                  0x000196          0x4 LONG 0xa70e DEFINED (__AltU1ErrInterrupt)?ABSOLUTE (__AltU1ErrInterrupt):DEFINED (__U1ErrInterrupt)?ABSOLUTE (__U1ErrInterrupt):ABSOLUTE (__DefaultInterrupt)
                  0x000198          0x4 LONG 0xa70e DEFINED (__AltU2ErrInterrupt)?ABSOLUTE (__AltU2ErrInterrupt):DEFINED (__U2ErrInterrupt)?ABSOLUTE (__U2ErrInterrupt):ABSOLUTE (__DefaultInterrupt)
                  0x00019a          0x4 LONG 0xa70e DEFINED (__AltInterrupt67)?ABSOLUTE (__AltInterrupt67):DEFINED (__Interrupt67)?ABSOLUTE (__Interrupt67):ABSOLUTE (__DefaultInterrupt)
                  0x00019c          0x4 LONG 0xa70e DEFINED (__AltDMA6Interrupt)?ABSOLUTE (__AltDMA6Interrupt):DEFINED (__DMA6Interrupt)?ABSOLUTE (__DMA6Interrupt):ABSOLUTE (__DefaultInterrupt)
                  0x00019e          0x4 LONG 0xa70e DEFINED (__AltDMA7Interrupt)?ABSOLUTE (__AltDMA7Interrupt):DEFINED (__DMA7Interrupt)?ABSOLUTE (__DMA7Interrupt):ABSOLUTE (__DefaultInterrupt)
                  0x0001a0          0x4 LONG 0xa70e DEFINED (__AltC1TxReqInterrupt)?ABSOLUTE (__AltC1TxReqInterrupt):DEFINED (__C1TxReqInterrupt)?ABSOLUTE (__C1TxReqInterrupt):ABSOLUTE (__DefaultInterrupt)
                  0x0001a2          0x4 LONG 0xa70e DEFINED (__AltC2TxReqInterrupt)?ABSOLUTE (__AltC2TxReqInterrupt):DEFINED (__C2TxReqInterrupt)?ABSOLUTE (__C2TxReqInterrupt):ABSOLUTE (__DefaultInterrupt)
                  0x0001a4          0x4 LONG 0xa70e DEFINED (__AltInterrupt72)?ABSOLUTE (__AltInterrupt72):DEFINED (__Interrupt72)?ABSOLUTE (__Interrupt72):ABSOLUTE (__DefaultInterrupt)
                  0x0001a6          0x4 LONG 0xa70e DEFINED (__AltInterrupt73)?ABSOLUTE (__AltInterrupt73):DEFINED (__Interrupt73)?ABSOLUTE (__Interrupt73):ABSOLUTE (__DefaultInterrupt)
                  0x0001a8          0x4 LONG 0xa70e DEFINED (__AltInterrupt74)?ABSOLUTE (__AltInterrupt74):DEFINED (__Interrupt74)?ABSOLUTE (__Interrupt74):ABSOLUTE (__DefaultInterrupt)
                  0x0001aa          0x4 LONG 0xa70e DEFINED (__AltInterrupt75)?ABSOLUTE (__AltInterrupt75):DEFINED (__Interrupt75)?ABSOLUTE (__Interrupt75):ABSOLUTE (__DefaultInterrupt)
                  0x0001ac          0x4 LONG 0xa70e DEFINED (__AltInterrupt76)?ABSOLUTE (__AltInterrupt76):DEFINED (__Interrupt76)?ABSOLUTE (__Interrupt76):ABSOLUTE (__DefaultInterrupt)
                  0x0001ae          0x4 LONG 0xa70e DEFINED (__AltInterrupt77)?ABSOLUTE (__AltInterrupt77):DEFINED (__Interrupt77)?ABSOLUTE (__Interrupt77):ABSOLUTE (__DefaultInterrupt)
                  0x0001b0          0x4 LONG 0xa70e DEFINED (__AltInterrupt78)?ABSOLUTE (__AltInterrupt78):DEFINED (__Interrupt78)?ABSOLUTE (__Interrupt78):ABSOLUTE (__DefaultInterrupt)
                  0x0001b2          0x4 LONG 0xa70e DEFINED (__AltInterrupt79)?ABSOLUTE (__AltInterrupt79):DEFINED (__Interrupt79)?ABSOLUTE (__Interrupt79):ABSOLUTE (__DefaultInterrupt)
                  0x0001b4          0x4 LONG 0xa70e DEFINED (__AltInterrupt80)?ABSOLUTE (__AltInterrupt80):DEFINED (__Interrupt80)?ABSOLUTE (__Interrupt80):ABSOLUTE (__DefaultInterrupt)
                  0x0001b6          0x4 LONG 0xa70e DEFINED (__AltInterrupt81)?ABSOLUTE (__AltInterrupt81):DEFINED (__Interrupt81)?ABSOLUTE (__Interrupt81):ABSOLUTE (__DefaultInterrupt)
                  0x0001b8          0x4 LONG 0xa70e DEFINED (__AltInterrupt82)?ABSOLUTE (__AltInterrupt82):DEFINED (__Interrupt82)?ABSOLUTE (__Interrupt82):ABSOLUTE (__DefaultInterrupt)
                  0x0001ba          0x4 LONG 0xa70e DEFINED (__AltInterrupt83)?ABSOLUTE (__AltInterrupt83):DEFINED (__Interrupt83)?ABSOLUTE (__Interrupt83):ABSOLUTE (__DefaultInterrupt)
                  0x0001bc          0x4 LONG 0xa70e DEFINED (__AltInterrupt84)?ABSOLUTE (__AltInterrupt84):DEFINED (__Interrupt84)?ABSOLUTE (__Interrupt84):ABSOLUTE (__DefaultInterrupt)
                  0x0001be          0x4 LONG 0xa70e DEFINED (__AltInterrupt85)?ABSOLUTE (__AltInterrupt85):DEFINED (__Interrupt85)?ABSOLUTE (__Interrupt85):ABSOLUTE (__DefaultInterrupt)
                  0x0001c0          0x4 LONG 0xa70e DEFINED (__AltInterrupt86)?ABSOLUTE (__AltInterrupt86):DEFINED (__Interrupt86)?ABSOLUTE (__Interrupt86):ABSOLUTE (__DefaultInterrupt)
                  0x0001c2          0x4 LONG 0xa70e DEFINED (__AltInterrupt87)?ABSOLUTE (__AltInterrupt87):DEFINED (__Interrupt87)?ABSOLUTE (__Interrupt87):ABSOLUTE (__DefaultInterrupt)
                  0x0001c4          0x4 LONG 0xa70e DEFINED (__AltInterrupt88)?ABSOLUTE (__AltInterrupt88):DEFINED (__Interrupt88)?ABSOLUTE (__Interrupt88):ABSOLUTE (__DefaultInterrupt)
                  0x0001c6          0x4 LONG 0xa70e DEFINED (__AltInterrupt89)?ABSOLUTE (__AltInterrupt89):DEFINED (__Interrupt89)?ABSOLUTE (__Interrupt89):ABSOLUTE (__DefaultInterrupt)
                  0x0001c8          0x4 LONG 0xa70e DEFINED (__AltInterrupt90)?ABSOLUTE (__AltInterrupt90):DEFINED (__Interrupt90)?ABSOLUTE (__Interrupt90):ABSOLUTE (__DefaultInterrupt)
                  0x0001ca          0x4 LONG 0xa70e DEFINED (__AltInterrupt91)?ABSOLUTE (__AltInterrupt91):DEFINED (__Interrupt91)?ABSOLUTE (__Interrupt91):ABSOLUTE (__DefaultInterrupt)
                  0x0001cc          0x4 LONG 0xa70e DEFINED (__AltInterrupt92)?ABSOLUTE (__AltInterrupt92):DEFINED (__Interrupt92)?ABSOLUTE (__Interrupt92):ABSOLUTE (__DefaultInterrupt)
                  0x0001ce          0x4 LONG 0xa70e DEFINED (__AltInterrupt93)?ABSOLUTE (__AltInterrupt93):DEFINED (__Interrupt93)?ABSOLUTE (__Interrupt93):ABSOLUTE (__DefaultInterrupt)
                  0x0001d0          0x4 LONG 0xa70e DEFINED (__AltInterrupt94)?ABSOLUTE (__AltInterrupt94):DEFINED (__Interrupt94)?ABSOLUTE (__Interrupt94):ABSOLUTE (__DefaultInterrupt)
                  0x0001d2          0x4 LONG 0xa70e DEFINED (__AltInterrupt95)?ABSOLUTE (__AltInterrupt95):DEFINED (__Interrupt95)?ABSOLUTE (__Interrupt95):ABSOLUTE (__DefaultInterrupt)
                  0x0001d4          0x4 LONG 0xa70e DEFINED (__AltInterrupt96)?ABSOLUTE (__AltInterrupt96):DEFINED (__Interrupt96)?ABSOLUTE (__Interrupt96):ABSOLUTE (__DefaultInterrupt)
                  0x0001d6          0x4 LONG 0xa70e DEFINED (__AltInterrupt97)?ABSOLUTE (__AltInterrupt97):DEFINED (__Interrupt97)?ABSOLUTE (__Interrupt97):ABSOLUTE (__DefaultInterrupt)
                  0x0001d8          0x4 LONG 0xa70e DEFINED (__AltInterrupt98)?ABSOLUTE (__AltInterrupt98):DEFINED (__Interrupt98)?ABSOLUTE (__Interrupt98):ABSOLUTE (__DefaultInterrupt)
                  0x0001da          0x4 LONG 0xa70e DEFINED (__AltInterrupt99)?ABSOLUTE (__AltInterrupt99):DEFINED (__Interrupt99)?ABSOLUTE (__Interrupt99):ABSOLUTE (__DefaultInterrupt)
                  0x0001dc          0x4 LONG 0xa70e DEFINED (__AltInterrupt100)?ABSOLUTE (__AltInterrupt100):DEFINED (__Interrupt100)?ABSOLUTE (__Interrupt100):ABSOLUTE (__DefaultInterrupt)
                  0x0001de          0x4 LONG 0xa70e DEFINED (__AltInterrupt101)?ABSOLUTE (__AltInterrupt101):DEFINED (__Interrupt101)?ABSOLUTE (__Interrupt101):ABSOLUTE (__DefaultInterrupt)
                  0x0001e0          0x4 LONG 0xa70e DEFINED (__AltInterrupt102)?ABSOLUTE (__AltInterrupt102):DEFINED (__Interrupt102)?ABSOLUTE (__Interrupt102):ABSOLUTE (__DefaultInterrupt)
                  0x0001e2          0x4 LONG 0xa70e DEFINED (__AltInterrupt103)?ABSOLUTE (__AltInterrupt103):DEFINED (__Interrupt103)?ABSOLUTE (__Interrupt103):ABSOLUTE (__DefaultInterrupt)
                  0x0001e4          0x4 LONG 0xa70e DEFINED (__AltInterrupt104)?ABSOLUTE (__AltInterrupt104):DEFINED (__Interrupt104)?ABSOLUTE (__Interrupt104):ABSOLUTE (__DefaultInterrupt)
                  0x0001e6          0x4 LONG 0xa70e DEFINED (__AltInterrupt105)?ABSOLUTE (__AltInterrupt105):DEFINED (__Interrupt105)?ABSOLUTE (__Interrupt105):ABSOLUTE (__DefaultInterrupt)
                  0x0001e8          0x4 LONG 0xa70e DEFINED (__AltInterrupt106)?ABSOLUTE (__AltInterrupt106):DEFINED (__Interrupt106)?ABSOLUTE (__Interrupt106):ABSOLUTE (__DefaultInterrupt)
                  0x0001ea          0x4 LONG 0xa70e DEFINED (__AltInterrupt107)?ABSOLUTE (__AltInterrupt107):DEFINED (__Interrupt107)?ABSOLUTE (__Interrupt107):ABSOLUTE (__DefaultInterrupt)
                  0x0001ec          0x4 LONG 0xa70e DEFINED (__AltInterrupt108)?ABSOLUTE (__AltInterrupt108):DEFINED (__Interrupt108)?ABSOLUTE (__Interrupt108):ABSOLUTE (__DefaultInterrupt)
                  0x0001ee          0x4 LONG 0xa70e DEFINED (__AltInterrupt109)?ABSOLUTE (__AltInterrupt109):DEFINED (__Interrupt109)?ABSOLUTE (__Interrupt109):ABSOLUTE (__DefaultInterrupt)
                  0x0001f0          0x4 LONG 0xa70e DEFINED (__AltInterrupt110)?ABSOLUTE (__AltInterrupt110):DEFINED (__Interrupt110)?ABSOLUTE (__Interrupt110):ABSOLUTE (__DefaultInterrupt)
                  0x0001f2          0x4 LONG 0xa70e DEFINED (__AltInterrupt111)?ABSOLUTE (__AltInterrupt111):DEFINED (__Interrupt111)?ABSOLUTE (__Interrupt111):ABSOLUTE (__DefaultInterrupt)
                  0x0001f4          0x4 LONG 0xa70e DEFINED (__AltInterrupt112)?ABSOLUTE (__AltInterrupt112):DEFINED (__Interrupt112)?ABSOLUTE (__Interrupt112):ABSOLUTE (__DefaultInterrupt)
                  0x0001f6          0x4 LONG 0xa70e DEFINED (__AltInterrupt113)?ABSOLUTE (__AltInterrupt113):DEFINED (__Interrupt113)?ABSOLUTE (__Interrupt113):ABSOLUTE (__DefaultInterrupt)
                  0x0001f8          0x4 LONG 0xa70e DEFINED (__AltInterrupt114)?ABSOLUTE (__AltInterrupt114):DEFINED (__Interrupt114)?ABSOLUTE (__Interrupt114):ABSOLUTE (__DefaultInterrupt)
                  0x0001fa          0x4 LONG 0xa70e DEFINED (__AltInterrupt115)?ABSOLUTE (__AltInterrupt115):DEFINED (__Interrupt115)?ABSOLUTE (__Interrupt115):ABSOLUTE (__DefaultInterrupt)
                  0x0001fc          0x4 LONG 0xa70e DEFINED (__AltInterrupt116)?ABSOLUTE (__AltInterrupt116):DEFINED (__Interrupt116)?ABSOLUTE (__Interrupt116):ABSOLUTE (__DefaultInterrupt)
                  0x0001fe          0x4 LONG 0xa70e DEFINED (__AltInterrupt117)?ABSOLUTE (__AltInterrupt117):DEFINED (__Interrupt117)?ABSOLUTE (__Interrupt117):ABSOLUTE (__DefaultInterrupt)
                    0x0000                  WREG0 = 0x0
                    0x0000                  _WREG0 = 0x0
                    0x0002                  WREG1 = 0x2
                    0x0002                  _WREG1 = 0x2
                    0x0004                  WREG2 = 0x4
                    0x0004                  _WREG2 = 0x4
                    0x0006                  WREG3 = 0x6
                    0x0006                  _WREG3 = 0x6
                    0x0008                  WREG4 = 0x8
                    0x0008                  _WREG4 = 0x8
                    0x000a                  WREG5 = 0xa
                    0x000a                  _WREG5 = 0xa
                    0x000c                  WREG6 = 0xc
                    0x000c                  _WREG6 = 0xc
                    0x000e                  WREG7 = 0xe
                    0x000e                  _WREG7 = 0xe
                    0x0010                  WREG8 = 0x10
                    0x0010                  _WREG8 = 0x10
                    0x0012                  WREG9 = 0x12
                    0x0012                  _WREG9 = 0x12
                    0x0014                  WREG10 = 0x14
                    0x0014                  _WREG10 = 0x14
                    0x0016                  WREG11 = 0x16
                    0x0016                  _WREG11 = 0x16
                    0x0018                  WREG12 = 0x18
                    0x0018                  _WREG12 = 0x18
                    0x001a                  WREG13 = 0x1a
                    0x001a                  _WREG13 = 0x1a
                    0x001c                  WREG14 = 0x1c
                    0x001c                  _WREG14 = 0x1c
                    0x001e                  WREG15 = 0x1e
                    0x001e                  _WREG15 = 0x1e
                    0x0020                  SPLIM = 0x20
                    0x0020                  _SPLIM = 0x20
                    0x0022                  ACCAL = 0x22
                    0x0022                  _ACCAL = 0x22
                    0x0024                  ACCAH = 0x24
                    0x0024                  _ACCAH = 0x24
                    0x0026                  ACCAU = 0x26
                    0x0026                  _ACCAU = 0x26
                    0x0028                  ACCBL = 0x28
                    0x0028                  _ACCBL = 0x28
                    0x002a                  ACCBH = 0x2a
                    0x002a                  _ACCBH = 0x2a
                    0x002c                  ACCBU = 0x2c
                    0x002c                  _ACCBU = 0x2c
                    0x002e                  PCL = 0x2e
                    0x002e                  _PCL = 0x2e
                    0x0030                  PCH = 0x30
                    0x0030                  _PCH = 0x30
                    0x0032                  TBLPAG = 0x32
                    0x0032                  _TBLPAG = 0x32
                    0x0034                  PSVPAG = 0x34
                    0x0034                  _PSVPAG = 0x34
                    0x0036                  RCOUNT = 0x36
                    0x0036                  _RCOUNT = 0x36
                    0x0038                  DCOUNT = 0x38
                    0x0038                  _DCOUNT = 0x38
                    0x003a                  DOSTARTL = 0x3a
                    0x003a                  _DOSTARTL = 0x3a
                    0x003c                  DOSTARTH = 0x3c
                    0x003c                  _DOSTARTH = 0x3c
                    0x003e                  DOENDL = 0x3e
                    0x003e                  _DOENDL = 0x3e
                    0x0040                  DOENDH = 0x40
                    0x0040                  _DOENDH = 0x40
                    0x0042                  SR = 0x42
                    0x0042                  _SR = 0x42
                    0x0042                  _SRbits = 0x42
                    0x0044                  CORCON = 0x44
                    0x0044                  _CORCON = 0x44
                    0x0044                  _CORCONbits = 0x44
                    0x0046                  MODCON = 0x46
                    0x0046                  _MODCON = 0x46
                    0x0046                  _MODCONbits = 0x46
                    0x0048                  XMODSRT = 0x48
                    0x0048                  _XMODSRT = 0x48
                    0x004a                  XMODEND = 0x4a
                    0x004a                  _XMODEND = 0x4a
                    0x004c                  YMODSRT = 0x4c
                    0x004c                  _YMODSRT = 0x4c
                    0x004e                  YMODEND = 0x4e
                    0x004e                  _YMODEND = 0x4e
                    0x0050                  XBREV = 0x50
                    0x0050                  _XBREV = 0x50
                    0x0050                  _XBREVbits = 0x50
                    0x0052                  DISICNT = 0x52
                    0x0052                  _DISICNT = 0x52
                    0x0060                  CNEN1 = 0x60
                    0x0060                  _CNEN1 = 0x60
                    0x0060                  _CNEN1bits = 0x60
                    0x0062                  CNEN2 = 0x62
                    0x0062                  _CNEN2 = 0x62
                    0x0062                  _CNEN2bits = 0x62
                    0x0068                  CNPU1 = 0x68
                    0x0068                  _CNPU1 = 0x68
                    0x0068                  _CNPU1bits = 0x68
                    0x006a                  CNPU2 = 0x6a
                    0x006a                  _CNPU2 = 0x6a
                    0x006a                  _CNPU2bits = 0x6a
                    0x0080                  INTCON1 = 0x80
                    0x0080                  _INTCON1 = 0x80
                    0x0080                  _INTCON1bits = 0x80
                    0x0082                  INTCON2 = 0x82
                    0x0082                  _INTCON2 = 0x82
                    0x0082                  _INTCON2bits = 0x82
                    0x0084                  IFS0 = 0x84
                    0x0084                  _IFS0 = 0x84
                    0x0084                  _IFS0bits = 0x84
                    0x0086                  IFS1 = 0x86
                    0x0086                  _IFS1 = 0x86
                    0x0086                  _IFS1bits = 0x86
                    0x0088                  IFS2 = 0x88
                    0x0088                  _IFS2 = 0x88
                    0x0088                  _IFS2bits = 0x88
                    0x008a                  IFS3 = 0x8a
                    0x008a                  _IFS3 = 0x8a
                    0x008a                  _IFS3bits = 0x8a
                    0x008c                  IFS4 = 0x8c
                    0x008c                  _IFS4 = 0x8c
                    0x008c                  _IFS4bits = 0x8c
                    0x0094                  IEC0 = 0x94
                    0x0094                  _IEC0 = 0x94
                    0x0094                  _IEC0bits = 0x94
                    0x0096                  IEC1 = 0x96
                    0x0096                  _IEC1 = 0x96
                    0x0096                  _IEC1bits = 0x96
                    0x0098                  IEC2 = 0x98
                    0x0098                  _IEC2 = 0x98
                    0x0098                  _IEC2bits = 0x98
                    0x009a                  IEC3 = 0x9a
                    0x009a                  _IEC3 = 0x9a
                    0x009a                  _IEC3bits = 0x9a
                    0x009c                  IEC4 = 0x9c
                    0x009c                  _IEC4 = 0x9c
                    0x009c                  _IEC4bits = 0x9c
                    0x00a4                  IPC0 = 0xa4
                    0x00a4                  _IPC0 = 0xa4
                    0x00a4                  _IPC0bits = 0xa4
                    0x00a6                  IPC1 = 0xa6
                    0x00a6                  _IPC1 = 0xa6
                    0x00a6                  _IPC1bits = 0xa6
                    0x00a8                  IPC2 = 0xa8
                    0x00a8                  _IPC2 = 0xa8
                    0x00a8                  _IPC2bits = 0xa8
                    0x00aa                  IPC3 = 0xaa
                    0x00aa                  _IPC3 = 0xaa
                    0x00aa                  _IPC3bits = 0xaa
                    0x00ac                  IPC4 = 0xac
                    0x00ac                  _IPC4 = 0xac
                    0x00ac                  _IPC4bits = 0xac
                    0x00ae                  IPC5 = 0xae
                    0x00ae                  _IPC5 = 0xae
                    0x00ae                  _IPC5bits = 0xae
                    0x00b0                  IPC6 = 0xb0
                    0x00b0                  _IPC6 = 0xb0
                    0x00b0                  _IPC6bits = 0xb0
                    0x00b2                  IPC7 = 0xb2
                    0x00b2                  _IPC7 = 0xb2
                    0x00b2                  _IPC7bits = 0xb2
                    0x00b4                  IPC8 = 0xb4
                    0x00b4                  _IPC8 = 0xb4
                    0x00b4                  _IPC8bits = 0xb4
                    0x00b6                  IPC9 = 0xb6
                    0x00b6                  _IPC9 = 0xb6
                    0x00b6                  _IPC9bits = 0xb6
                    0x00b8                  IPC10 = 0xb8
                    0x00b8                  _IPC10 = 0xb8
                    0x00b8                  _IPC10bits = 0xb8
                    0x00ba                  IPC11 = 0xba
                    0x00ba                  _IPC11 = 0xba
                    0x00ba                  _IPC11bits = 0xba
                    0x00bc                  IPC12 = 0xbc
                    0x00bc                  _IPC12 = 0xbc
                    0x00bc                  _IPC12bits = 0xbc
                    0x00be                  IPC13 = 0xbe
                    0x00be                  _IPC13 = 0xbe
                    0x00be                  _IPC13bits = 0xbe
                    0x00c0                  IPC14 = 0xc0
                    0x00c0                  _IPC14 = 0xc0
                    0x00c0                  _IPC14bits = 0xc0
                    0x00c2                  IPC15 = 0xc2
                    0x00c2                  _IPC15 = 0xc2
                    0x00c2                  _IPC15bits = 0xc2
                    0x00c4                  IPC16 = 0xc4
                    0x00c4                  _IPC16 = 0xc4
                    0x00c4                  _IPC16bits = 0xc4
                    0x00c6                  IPC17 = 0xc6
                    0x00c6                  _IPC17 = 0xc6
                    0x00c6                  _IPC17bits = 0xc6
                    0x00e0                  INTTREG = 0xe0
                    0x00e0                  _INTTREG = 0xe0
                    0x00e0                  _INTTREGbits = 0xe0
                    0x0100                  TMR1 = 0x100
                    0x0100                  _TMR1 = 0x100
                    0x0102                  PR1 = 0x102
                    0x0102                  _PR1 = 0x102
                    0x0104                  T1CON = 0x104
                    0x0104                  _T1CON = 0x104
                    0x0104                  _T1CONbits = 0x104
                    0x0106                  TMR2 = 0x106
                    0x0106                  _TMR2 = 0x106
                    0x0108                  TMR3HLD = 0x108
                    0x0108                  _TMR3HLD = 0x108
                    0x010a                  TMR3 = 0x10a
                    0x010a                  _TMR3 = 0x10a
                    0x010c                  PR2 = 0x10c
                    0x010c                  _PR2 = 0x10c
                    0x010e                  PR3 = 0x10e
                    0x010e                  _PR3 = 0x10e
                    0x0110                  T2CON = 0x110
                    0x0110                  _T2CON = 0x110
                    0x0110                  _T2CONbits = 0x110
                    0x0112                  T3CON = 0x112
                    0x0112                  _T3CON = 0x112
                    0x0112                  _T3CONbits = 0x112
                    0x0114                  TMR4 = 0x114
                    0x0114                  _TMR4 = 0x114
                    0x0116                  TMR5HLD = 0x116
                    0x0116                  _TMR5HLD = 0x116
                    0x0118                  TMR5 = 0x118
                    0x0118                  _TMR5 = 0x118
                    0x011a                  PR4 = 0x11a
                    0x011a                  _PR4 = 0x11a
                    0x011c                  PR5 = 0x11c
                    0x011c                  _PR5 = 0x11c
                    0x011e                  T4CON = 0x11e
                    0x011e                  _T4CON = 0x11e
                    0x011e                  _T4CONbits = 0x11e
                    0x0120                  T5CON = 0x120
                    0x0120                  _T5CON = 0x120
                    0x0120                  _T5CONbits = 0x120
                    0x0122                  TMR6 = 0x122
                    0x0122                  _TMR6 = 0x122
                    0x0124                  TMR7HLD = 0x124
                    0x0124                  _TMR7HLD = 0x124
                    0x0126                  TMR7 = 0x126
                    0x0126                  _TMR7 = 0x126
                    0x0128                  PR6 = 0x128
                    0x0128                  _PR6 = 0x128
                    0x012a                  PR7 = 0x12a
                    0x012a                  _PR7 = 0x12a
                    0x012c                  T6CON = 0x12c
                    0x012c                  _T6CON = 0x12c
                    0x012c                  _T6CONbits = 0x12c
                    0x012e                  T7CON = 0x12e
                    0x012e                  _T7CON = 0x12e
                    0x012e                  _T7CONbits = 0x12e
                    0x0130                  TMR8 = 0x130
                    0x0130                  _TMR8 = 0x130
                    0x0132                  TMR9HLD = 0x132
                    0x0132                  _TMR9HLD = 0x132
                    0x0134                  TMR9 = 0x134
                    0x0134                  _TMR9 = 0x134
                    0x0136                  PR8 = 0x136
                    0x0136                  _PR8 = 0x136
                    0x0138                  PR9 = 0x138
                    0x0138                  _PR9 = 0x138
                    0x013a                  T8CON = 0x13a
                    0x013a                  _T8CON = 0x13a
                    0x013a                  _T8CONbits = 0x13a
                    0x013c                  T9CON = 0x13c
                    0x013c                  _T9CON = 0x13c
                    0x013c                  _T9CONbits = 0x13c
                    0x0140                  IC1BUF = 0x140
                    0x0140                  _IC1BUF = 0x140
                    0x0142                  IC1CON = 0x142
                    0x0142                  _IC1CON = 0x142
                    0x0142                  _IC1CONbits = 0x142
                    0x0144                  IC2BUF = 0x144
                    0x0144                  _IC2BUF = 0x144
                    0x0146                  IC2CON = 0x146
                    0x0146                  _IC2CON = 0x146
                    0x0146                  _IC2CONbits = 0x146
                    0x0148                  IC3BUF = 0x148
                    0x0148                  _IC3BUF = 0x148
                    0x014a                  IC3CON = 0x14a
                    0x014a                  _IC3CON = 0x14a
                    0x014a                  _IC3CONbits = 0x14a
                    0x014c                  IC4BUF = 0x14c
                    0x014c                  _IC4BUF = 0x14c
                    0x014e                  IC4CON = 0x14e
                    0x014e                  _IC4CON = 0x14e
                    0x014e                  _IC4CONbits = 0x14e
                    0x0150                  IC5BUF = 0x150
                    0x0150                  _IC5BUF = 0x150
                    0x0152                  IC5CON = 0x152
                    0x0152                  _IC5CON = 0x152
                    0x0152                  _IC5CONbits = 0x152
                    0x0154                  IC6BUF = 0x154
                    0x0154                  _IC6BUF = 0x154
                    0x0156                  IC6CON = 0x156
                    0x0156                  _IC6CON = 0x156
                    0x0156                  _IC6CONbits = 0x156
                    0x0158                  IC7BUF = 0x158
                    0x0158                  _IC7BUF = 0x158
                    0x015a                  IC7CON = 0x15a
                    0x015a                  _IC7CON = 0x15a
                    0x015a                  _IC7CONbits = 0x15a
                    0x015c                  IC8BUF = 0x15c
                    0x015c                  _IC8BUF = 0x15c
                    0x015e                  IC8CON = 0x15e
                    0x015e                  _IC8CON = 0x15e
                    0x015e                  _IC8CONbits = 0x15e
                    0x0180                  OC1RS = 0x180
                    0x0180                  _OC1RS = 0x180
                    0x0182                  OC1R = 0x182
                    0x0182                  _OC1R = 0x182
                    0x0184                  OC1CON = 0x184
                    0x0184                  _OC1CON = 0x184
                    0x0184                  _OC1CONbits = 0x184
                    0x0186                  OC2RS = 0x186
                    0x0186                  _OC2RS = 0x186
                    0x0188                  OC2R = 0x188
                    0x0188                  _OC2R = 0x188
                    0x018a                  OC2CON = 0x18a
                    0x018a                  _OC2CON = 0x18a
                    0x018a                  _OC2CONbits = 0x18a
                    0x018c                  OC3RS = 0x18c
                    0x018c                  _OC3RS = 0x18c
                    0x018e                  OC3R = 0x18e
                    0x018e                  _OC3R = 0x18e
                    0x0190                  OC3CON = 0x190
                    0x0190                  _OC3CON = 0x190
                    0x0190                  _OC3CONbits = 0x190
                    0x0192                  OC4RS = 0x192
                    0x0192                  _OC4RS = 0x192
                    0x0194                  OC4R = 0x194
                    0x0194                  _OC4R = 0x194
                    0x0196                  OC4CON = 0x196
                    0x0196                  _OC4CON = 0x196
                    0x0196                  _OC4CONbits = 0x196
                    0x0198                  OC5RS = 0x198
                    0x0198                  _OC5RS = 0x198
                    0x019a                  OC5R = 0x19a
                    0x019a                  _OC5R = 0x19a
                    0x019c                  OC5CON = 0x19c
                    0x019c                  _OC5CON = 0x19c
                    0x019c                  _OC5CONbits = 0x19c
                    0x019e                  OC6RS = 0x19e
                    0x019e                  _OC6RS = 0x19e
                    0x01a0                  OC6R = 0x1a0
                    0x01a0                  _OC6R = 0x1a0
                    0x01a2                  OC6CON = 0x1a2
                    0x01a2                  _OC6CON = 0x1a2
                    0x01a2                  _OC6CONbits = 0x1a2
                    0x01a4                  OC7RS = 0x1a4
                    0x01a4                  _OC7RS = 0x1a4
                    0x01a6                  OC7R = 0x1a6
                    0x01a6                  _OC7R = 0x1a6
                    0x01a8                  OC7CON = 0x1a8
                    0x01a8                  _OC7CON = 0x1a8
                    0x01a8                  _OC7CONbits = 0x1a8
                    0x01aa                  OC8RS = 0x1aa
                    0x01aa                  _OC8RS = 0x1aa
                    0x01ac                  OC8R = 0x1ac
                    0x01ac                  _OC8R = 0x1ac
                    0x01ae                  OC8CON = 0x1ae
                    0x01ae                  _OC8CON = 0x1ae
                    0x01ae                  _OC8CONbits = 0x1ae
                    0x0200                  I2C1RCV = 0x200
                    0x0200                  _I2C1RCV = 0x200
                    0x0200                  I2CRCV = 0x200
                    0x0200                  _I2CRCV = 0x200
                    0x0202                  I2C1TRN = 0x202
                    0x0202                  _I2C1TRN = 0x202
                    0x0202                  I2CTRN = 0x202
                    0x0202                  _I2CTRN = 0x202
                    0x0204                  I2C1BRG = 0x204
                    0x0204                  _I2C1BRG = 0x204
                    0x0206                  I2C1CON = 0x206
                    0x0206                  _I2C1CON = 0x206
                    0x0206                  _I2C1CONbits = 0x206
                    0x0206                  I2CCON = 0x206
                    0x0206                  _I2CCON = 0x206
                    0x0206                  _I2CCONbits = 0x206
                    0x0208                  I2C1STAT = 0x208
                    0x0208                  _I2C1STAT = 0x208
                    0x0208                  _I2C1STATbits = 0x208
                    0x0208                  I2CSTAT = 0x208
                    0x0208                  _I2CSTAT = 0x208
                    0x0208                  _I2CSTATbits = 0x208
                    0x020a                  I2C1ADD = 0x20a
                    0x020a                  _I2C1ADD = 0x20a
                    0x020a                  I2CADD = 0x20a
                    0x020a                  _I2CADD = 0x20a
                    0x020c                  I2C1MSK = 0x20c
                    0x020c                  _I2C1MSK = 0x20c
                    0x0210                  I2C2RCV = 0x210
                    0x0210                  _I2C2RCV = 0x210
                    0x0212                  I2C2TRN = 0x212
                    0x0212                  _I2C2TRN = 0x212
                    0x0214                  I2C2BRG = 0x214
                    0x0214                  _I2C2BRG = 0x214
                    0x0216                  I2C2CON = 0x216
                    0x0216                  _I2C2CON = 0x216
                    0x0216                  _I2C2CONbits = 0x216
                    0x0218                  I2C2STAT = 0x218
                    0x0218                  _I2C2STAT = 0x218
                    0x0218                  _I2C2STATbits = 0x218
                    0x021a                  I2C2ADD = 0x21a
                    0x021a                  _I2C2ADD = 0x21a
                    0x021c                  I2C2MSK = 0x21c
                    0x021c                  _I2C2MSK = 0x21c
                    0x0220                  U1MODE = 0x220
                    0x0220                  _U1MODE = 0x220
                    0x0220                  _U1MODEbits = 0x220
                    0x0222                  U1STA = 0x222
                    0x0222                  _U1STA = 0x222
                    0x0222                  _U1STAbits = 0x222
                    0x0224                  U1TXREG = 0x224
                    0x0224                  _U1TXREG = 0x224
                    0x0224                  _U1TXREGbits = 0x224
                    0x0226                  U1RXREG = 0x226
                    0x0226                  _U1RXREG = 0x226
                    0x0226                  _U1RXREGbits = 0x226
                    0x0228                  U1BRG = 0x228
                    0x0228                  _U1BRG = 0x228
                    0x0230                  U2MODE = 0x230
                    0x0230                  _U2MODE = 0x230
                    0x0230                  _U2MODEbits = 0x230
                    0x0232                  U2STA = 0x232
                    0x0232                  _U2STA = 0x232
                    0x0232                  _U2STAbits = 0x232
                    0x0234                  U2TXREG = 0x234
                    0x0234                  _U2TXREG = 0x234
                    0x0234                  _U2TXREGbits = 0x234
                    0x0236                  U2RXREG = 0x236
                    0x0236                  _U2RXREG = 0x236
                    0x0236                  _U2RXREGbits = 0x236
                    0x0238                  U2BRG = 0x238
                    0x0238                  _U2BRG = 0x238
                    0x0240                  SPI1STAT = 0x240
                    0x0240                  _SPI1STAT = 0x240
                    0x0240                  _SPI1STATbits = 0x240
                    0x0242                  SPI1CON1 = 0x242
                    0x0242                  _SPI1CON1 = 0x242
                    0x0242                  _SPI1CON1bits = 0x242
                    0x0244                  SPI1CON2 = 0x244
                    0x0244                  _SPI1CON2 = 0x244
                    0x0244                  _SPI1CON2bits = 0x244
                    0x0248                  SPI1BUF = 0x248
                    0x0248                  _SPI1BUF = 0x248
                    0x0260                  SPI2STAT = 0x260
                    0x0260                  _SPI2STAT = 0x260
                    0x0260                  _SPI2STATbits = 0x260
                    0x0262                  SPI2CON1 = 0x262
                    0x0262                  _SPI2CON1 = 0x262
                    0x0262                  _SPI2CON1bits = 0x262
                    0x0264                  SPI2CON2 = 0x264
                    0x0264                  _SPI2CON2 = 0x264
                    0x0264                  _SPI2CON2bits = 0x264
                    0x0268                  SPI2BUF = 0x268
                    0x0268                  _SPI2BUF = 0x268
                    0x0280                  DCICON1 = 0x280
                    0x0280                  _DCICON1 = 0x280
                    0x0280                  _DCICON1bits = 0x280
                    0x0282                  DCICON2 = 0x282
                    0x0282                  _DCICON2 = 0x282
                    0x0282                  _DCICON2bits = 0x282
                    0x0284                  DCICON3 = 0x284
                    0x0284                  _DCICON3 = 0x284
                    0x0284                  _DCICON3bits = 0x284
                    0x0286                  DCISTAT = 0x286
                    0x0286                  _DCISTAT = 0x286
                    0x0286                  _DCISTATbits = 0x286
                    0x0288                  TSCON = 0x288
                    0x0288                  _TSCON = 0x288
                    0x0288                  _TSCONbits = 0x288
                    0x028c                  RSCON = 0x28c
                    0x028c                  _RSCON = 0x28c
                    0x028c                  _RSCONbits = 0x28c
                    0x0290                  RXBUF0 = 0x290
                    0x0290                  _RXBUF0 = 0x290
                    0x0292                  RXBUF1 = 0x292
                    0x0292                  _RXBUF1 = 0x292
                    0x0294                  RXBUF2 = 0x294
                    0x0294                  _RXBUF2 = 0x294
                    0x0296                  RXBUF3 = 0x296
                    0x0296                  _RXBUF3 = 0x296
                    0x0298                  TXBUF0 = 0x298
                    0x0298                  _TXBUF0 = 0x298
                    0x029a                  TXBUF1 = 0x29a
                    0x029a                  _TXBUF1 = 0x29a
                    0x029c                  TXBUF2 = 0x29c
                    0x029c                  _TXBUF2 = 0x29c
                    0x029e                  TXBUF3 = 0x29e
                    0x029e                  _TXBUF3 = 0x29e
                    0x02c0                  TRISA = 0x2c0
                    0x02c0                  _TRISA = 0x2c0
                    0x02c0                  _TRISAbits = 0x2c0
                    0x02c2                  PORTA = 0x2c2
                    0x02c2                  _PORTA = 0x2c2
                    0x02c2                  _PORTAbits = 0x2c2
                    0x02c4                  LATA = 0x2c4
                    0x02c4                  _LATA = 0x2c4
                    0x02c4                  _LATAbits = 0x2c4
                    0x02c6                  TRISB = 0x2c6
                    0x02c6                  _TRISB = 0x2c6
                    0x02c6                  _TRISBbits = 0x2c6
                    0x02c8                  PORTB = 0x2c8
                    0x02c8                  _PORTB = 0x2c8
                    0x02c8                  _PORTBbits = 0x2c8
                    0x02ca                  LATB = 0x2ca
                    0x02ca                  _LATB = 0x2ca
                    0x02ca                  _LATBbits = 0x2ca
                    0x02cc                  TRISC = 0x2cc
                    0x02cc                  _TRISC = 0x2cc
                    0x02cc                  _TRISCbits = 0x2cc
                    0x02ce                  PORTC = 0x2ce
                    0x02ce                  _PORTC = 0x2ce
                    0x02ce                  _PORTCbits = 0x2ce
                    0x02d0                  LATC = 0x2d0
                    0x02d0                  _LATC = 0x2d0
                    0x02d0                  _LATCbits = 0x2d0
                    0x02d2                  TRISD = 0x2d2
                    0x02d2                  _TRISD = 0x2d2
                    0x02d2                  _TRISDbits = 0x2d2
                    0x02d4                  PORTD = 0x2d4
                    0x02d4                  _PORTD = 0x2d4
                    0x02d4                  _PORTDbits = 0x2d4
                    0x02d6                  LATD = 0x2d6
                    0x02d6                  _LATD = 0x2d6
                    0x02d6                  _LATDbits = 0x2d6
                    0x02d8                  TRISE = 0x2d8
                    0x02d8                  _TRISE = 0x2d8
                    0x02d8                  _TRISEbits = 0x2d8
                    0x02da                  PORTE = 0x2da
                    0x02da                  _PORTE = 0x2da
                    0x02da                  _PORTEbits = 0x2da
                    0x02dc                  LATE = 0x2dc
                    0x02dc                  _LATE = 0x2dc
                    0x02dc                  _LATEbits = 0x2dc
                    0x02de                  TRISF = 0x2de
                    0x02de                  _TRISF = 0x2de
                    0x02de                  _TRISFbits = 0x2de
                    0x02e0                  PORTF = 0x2e0
                    0x02e0                  _PORTF = 0x2e0
                    0x02e0                  _PORTFbits = 0x2e0
                    0x02e2                  LATF = 0x2e2
                    0x02e2                  _LATF = 0x2e2
                    0x02e2                  _LATFbits = 0x2e2
                    0x02e4                  TRISG = 0x2e4
                    0x02e4                  _TRISG = 0x2e4
                    0x02e4                  _TRISGbits = 0x2e4
                    0x02e6                  PORTG = 0x2e6
                    0x02e6                  _PORTG = 0x2e6
                    0x02e6                  _PORTGbits = 0x2e6
                    0x02e8                  LATG = 0x2e8
                    0x02e8                  _LATG = 0x2e8
                    0x02e8                  _LATGbits = 0x2e8
                    0x0300                  ADC1BUF0 = 0x300
                    0x0300                  _ADC1BUF0 = 0x300
                    0x0300                  ADCBUF0 = 0x300
                    0x0300                  _ADCBUF0 = 0x300
                    0x0320                  AD1CON1 = 0x320
                    0x0320                  _AD1CON1 = 0x320
                    0x0320                  _AD1CON1bits = 0x320
                    0x0322                  AD1CON2 = 0x322
                    0x0322                  _AD1CON2 = 0x322
                    0x0322                  _AD1CON2bits = 0x322
                    0x0324                  AD1CON3 = 0x324
                    0x0324                  _AD1CON3 = 0x324
                    0x0324                  _AD1CON3bits = 0x324
                    0x0326                  AD1CHS123 = 0x326
                    0x0326                  _AD1CHS123 = 0x326
                    0x0326                  _AD1CHS123bits = 0x326
                    0x0328                  AD1CHS0 = 0x328
                    0x0328                  _AD1CHS0 = 0x328
                    0x0328                  _AD1CHS0bits = 0x328
                    0x032a                  AD1PCFGH = 0x32a
                    0x032a                  _AD1PCFGH = 0x32a
                    0x032a                  _AD1PCFGHbits = 0x32a
                    0x032c                  AD1PCFGL = 0x32c
                    0x032c                  _AD1PCFGL = 0x32c
                    0x032c                  _AD1PCFGLbits = 0x32c
                    0x032c                  ADPCFG = 0x32c
                    0x032c                  _ADPCFG = 0x32c
                    0x032c                  _ADPCFGbits = 0x32c
                    0x032e                  AD1CSSH = 0x32e
                    0x032e                  _AD1CSSH = 0x32e
                    0x032e                  _AD1CSSHbits = 0x32e
                    0x0330                  AD1CSSL = 0x330
                    0x0330                  _AD1CSSL = 0x330
                    0x0330                  _AD1CSSLbits = 0x330
                    0x0332                  AD1CON4 = 0x332
                    0x0332                  _AD1CON4 = 0x332
                    0x0332                  _AD1CON4bits = 0x332
                    0x0340                  ADC2BUF0 = 0x340
                    0x0340                  _ADC2BUF0 = 0x340
                    0x0360                  AD2CON1 = 0x360
                    0x0360                  _AD2CON1 = 0x360
                    0x0360                  _AD2CON1bits = 0x360
                    0x0362                  AD2CON2 = 0x362
                    0x0362                  _AD2CON2 = 0x362
                    0x0362                  _AD2CON2bits = 0x362
                    0x0364                  AD2CON3 = 0x364
                    0x0364                  _AD2CON3 = 0x364
                    0x0364                  _AD2CON3bits = 0x364
                    0x0366                  AD2CHS123 = 0x366
                    0x0366                  _AD2CHS123 = 0x366
                    0x0366                  _AD2CHS123bits = 0x366
                    0x0368                  AD2CHS0 = 0x368
                    0x0368                  _AD2CHS0 = 0x368
                    0x0368                  _AD2CHS0bits = 0x368
                    0x036c                  AD2PCFGL = 0x36c
                    0x036c                  _AD2PCFGL = 0x36c
                    0x036c                  _AD2PCFGLbits = 0x36c
                    0x0370                  AD2CSSL = 0x370
                    0x0370                  _AD2CSSL = 0x370
                    0x0370                  _AD2CSSLbits = 0x370
                    0x0372                  AD2CON4 = 0x372
                    0x0372                  _AD2CON4 = 0x372
                    0x0372                  _AD2CON4bits = 0x372
                    0x0380                  DMA0CON = 0x380
                    0x0380                  _DMA0CON = 0x380
                    0x0380                  _DMA0CONbits = 0x380
                    0x0382                  DMA0REQ = 0x382
                    0x0382                  _DMA0REQ = 0x382
                    0x0382                  _DMA0REQbits = 0x382
                    0x0384                  DMA0STA = 0x384
                    0x0384                  _DMA0STA = 0x384
                    0x0386                  DMA0STB = 0x386
                    0x0386                  _DMA0STB = 0x386
                    0x0388                  DMA0PAD = 0x388
                    0x0388                  _DMA0PAD = 0x388
                    0x038a                  DMA0CNT = 0x38a
                    0x038a                  _DMA0CNT = 0x38a
                    0x038c                  DMA1CON = 0x38c
                    0x038c                  _DMA1CON = 0x38c
                    0x038c                  _DMA1CONbits = 0x38c
                    0x038e                  DMA1REQ = 0x38e
                    0x038e                  _DMA1REQ = 0x38e
                    0x038e                  _DMA1REQbits = 0x38e
                    0x0390                  DMA1STA = 0x390
                    0x0390                  _DMA1STA = 0x390
                    0x0392                  DMA1STB = 0x392
                    0x0392                  _DMA1STB = 0x392
                    0x0394                  DMA1PAD = 0x394
                    0x0394                  _DMA1PAD = 0x394
                    0x0396                  DMA1CNT = 0x396
                    0x0396                  _DMA1CNT = 0x396
                    0x0398                  DMA2CON = 0x398
                    0x0398                  _DMA2CON = 0x398
                    0x0398                  _DMA2CONbits = 0x398
                    0x039a                  DMA2REQ = 0x39a
                    0x039a                  _DMA2REQ = 0x39a
                    0x039a                  _DMA2REQbits = 0x39a
                    0x039c                  DMA2STA = 0x39c
                    0x039c                  _DMA2STA = 0x39c
                    0x039e                  DMA2STB = 0x39e
                    0x039e                  _DMA2STB = 0x39e
                    0x03a0                  DMA2PAD = 0x3a0
                    0x03a0                  _DMA2PAD = 0x3a0
                    0x03a2                  DMA2CNT = 0x3a2
                    0x03a2                  _DMA2CNT = 0x3a2
                    0x03a4                  DMA3CON = 0x3a4
                    0x03a4                  _DMA3CON = 0x3a4
                    0x03a4                  _DMA3CONbits = 0x3a4
                    0x03a6                  DMA3REQ = 0x3a6
                    0x03a6                  _DMA3REQ = 0x3a6
                    0x03a6                  _DMA3REQbits = 0x3a6
                    0x03a8                  DMA3STA = 0x3a8
                    0x03a8                  _DMA3STA = 0x3a8
                    0x03aa                  DMA3STB = 0x3aa
                    0x03aa                  _DMA3STB = 0x3aa
                    0x03ac                  DMA3PAD = 0x3ac
                    0x03ac                  _DMA3PAD = 0x3ac
                    0x03ae                  DMA3CNT = 0x3ae
                    0x03ae                  _DMA3CNT = 0x3ae
                    0x03b0                  DMA4CON = 0x3b0
                    0x03b0                  _DMA4CON = 0x3b0
                    0x03b0                  _DMA4CONbits = 0x3b0
                    0x03b2                  DMA4REQ = 0x3b2
                    0x03b2                  _DMA4REQ = 0x3b2
                    0x03b2                  _DMA4REQbits = 0x3b2
                    0x03b4                  DMA4STA = 0x3b4
                    0x03b4                  _DMA4STA = 0x3b4
                    0x03b6                  DMA4STB = 0x3b6
                    0x03b6                  _DMA4STB = 0x3b6
                    0x03b8                  DMA4PAD = 0x3b8
                    0x03b8                  _DMA4PAD = 0x3b8
                    0x03ba                  DMA4CNT = 0x3ba
                    0x03ba                  _DMA4CNT = 0x3ba
                    0x03bc                  DMA5CON = 0x3bc
                    0x03bc                  _DMA5CON = 0x3bc
                    0x03bc                  _DMA5CONbits = 0x3bc
                    0x03be                  DMA5REQ = 0x3be
                    0x03be                  _DMA5REQ = 0x3be
                    0x03be                  _DMA5REQbits = 0x3be
                    0x03c0                  DMA5STA = 0x3c0
                    0x03c0                  _DMA5STA = 0x3c0
                    0x03c2                  DMA5STB = 0x3c2
                    0x03c2                  _DMA5STB = 0x3c2
                    0x03c4                  DMA5PAD = 0x3c4
                    0x03c4                  _DMA5PAD = 0x3c4
                    0x03c6                  DMA5CNT = 0x3c6
                    0x03c6                  _DMA5CNT = 0x3c6
                    0x03c8                  DMA6CON = 0x3c8
                    0x03c8                  _DMA6CON = 0x3c8
                    0x03c8                  _DMA6CONbits = 0x3c8
                    0x03ca                  DMA6REQ = 0x3ca
                    0x03ca                  _DMA6REQ = 0x3ca
                    0x03ca                  _DMA6REQbits = 0x3ca
                    0x03cc                  DMA6STA = 0x3cc
                    0x03cc                  _DMA6STA = 0x3cc
                    0x03ce                  DMA6STB = 0x3ce
                    0x03ce                  _DMA6STB = 0x3ce
                    0x03d0                  DMA6PAD = 0x3d0
                    0x03d0                  _DMA6PAD = 0x3d0
                    0x03d2                  DMA6CNT = 0x3d2
                    0x03d2                  _DMA6CNT = 0x3d2
                    0x03d4                  DMA7CON = 0x3d4
                    0x03d4                  _DMA7CON = 0x3d4
                    0x03d4                  _DMA7CONbits = 0x3d4
                    0x03d6                  DMA7REQ = 0x3d6
                    0x03d6                  _DMA7REQ = 0x3d6
                    0x03d6                  _DMA7REQbits = 0x3d6
                    0x03d8                  DMA7STA = 0x3d8
                    0x03d8                  _DMA7STA = 0x3d8
                    0x03da                  DMA7STB = 0x3da
                    0x03da                  _DMA7STB = 0x3da
                    0x03dc                  DMA7PAD = 0x3dc
                    0x03dc                  _DMA7PAD = 0x3dc
                    0x03de                  DMA7CNT = 0x3de
                    0x03de                  _DMA7CNT = 0x3de
                    0x03e0                  DMACS0 = 0x3e0
                    0x03e0                  _DMACS0 = 0x3e0
                    0x03e0                  _DMACS0bits = 0x3e0
                    0x03e2                  DMACS1 = 0x3e2
                    0x03e2                  _DMACS1 = 0x3e2
                    0x03e2                  _DMACS1bits = 0x3e2
                    0x03e4                  DSADR = 0x3e4
                    0x03e4                  _DSADR = 0x3e4
                    0x0400                  C1CTRL1 = 0x400
                    0x0400                  _C1CTRL1 = 0x400
                    0x0400                  _C1CTRL1bits = 0x400
                    0x0402                  C1CTRL2 = 0x402
                    0x0402                  _C1CTRL2 = 0x402
                    0x0402                  _C1CTRL2bits = 0x402
                    0x0404                  C1VEC = 0x404
                    0x0404                  _C1VEC = 0x404
                    0x0404                  _C1VECbits = 0x404
                    0x0406                  C1FCTRL = 0x406
                    0x0406                  _C1FCTRL = 0x406
                    0x0406                  _C1FCTRLbits = 0x406
                    0x0408                  C1FIFO = 0x408
                    0x0408                  _C1FIFO = 0x408
                    0x0408                  _C1FIFObits = 0x408
                    0x040a                  C1INTF = 0x40a
                    0x040a                  _C1INTF = 0x40a
                    0x040a                  _C1INTFbits = 0x40a
                    0x040c                  C1INTE = 0x40c
                    0x040c                  _C1INTE = 0x40c
                    0x040c                  _C1INTEbits = 0x40c
                    0x040e                  C1EC = 0x40e
                    0x040e                  _C1EC = 0x40e
                    0x040e                  _C1ECbits = 0x40e
                    0x040e                  C1RERRCNT = 0x40e
                    0x040e                  _C1RERRCNT = 0x40e
                    0x040f                  C1TERRCNT = 0x40f
                    0x040f                  _C1TERRCNT = 0x40f
                    0x0410                  C1CFG1 = 0x410
                    0x0410                  _C1CFG1 = 0x410
                    0x0410                  _C1CFG1bits = 0x410
                    0x0412                  C1CFG2 = 0x412
                    0x0412                  _C1CFG2 = 0x412
                    0x0412                  _C1CFG2bits = 0x412
                    0x0414                  C1FEN1 = 0x414
                    0x0414                  _C1FEN1 = 0x414
                    0x0414                  _C1FEN1bits = 0x414
                    0x0418                  C1FMSKSEL1 = 0x418
                    0x0418                  _C1FMSKSEL1 = 0x418
                    0x0418                  _C1FMSKSEL1bits = 0x418
                    0x041a                  C1FMSKSEL2 = 0x41a
                    0x041a                  _C1FMSKSEL2 = 0x41a
                    0x041a                  _C1FMSKSEL2bits = 0x41a
                    0x0420                  C1BUFPNT1 = 0x420
                    0x0420                  _C1BUFPNT1 = 0x420
                    0x0420                  _C1BUFPNT1bits = 0x420
                    0x0420                  C1RXFUL1 = 0x420
                    0x0420                  _C1RXFUL1 = 0x420
                    0x0420                  _C1RXFUL1bits = 0x420
                    0x0422                  C1BUFPNT2 = 0x422
                    0x0422                  _C1BUFPNT2 = 0x422
                    0x0422                  _C1BUFPNT2bits = 0x422
                    0x0422                  C1RXFUL2 = 0x422
                    0x0422                  _C1RXFUL2 = 0x422
                    0x0422                  _C1RXFUL2bits = 0x422
                    0x0424                  C1BUFPNT3 = 0x424
                    0x0424                  _C1BUFPNT3 = 0x424
                    0x0424                  _C1BUFPNT3bits = 0x424
                    0x0426                  C1BUFPNT4 = 0x426
                    0x0426                  _C1BUFPNT4 = 0x426
                    0x0426                  _C1BUFPNT4bits = 0x426
                    0x0428                  C1RXOVF1 = 0x428
                    0x0428                  _C1RXOVF1 = 0x428
                    0x0428                  _C1RXOVF1bits = 0x428
                    0x042a                  C1RXOVF2 = 0x42a
                    0x042a                  _C1RXOVF2 = 0x42a
                    0x042a                  _C1RXOVF2bits = 0x42a
                    0x0430                  C1RXM0SID = 0x430
                    0x0430                  _C1RXM0SID = 0x430
                    0x0430                  _C1RXM0SIDbits = 0x430
                    0x0430                  C1TR01CON = 0x430
                    0x0430                  _C1TR01CON = 0x430
                    0x0430                  _C1TR01CONbits = 0x430
                    0x0432                  C1RXM0EID = 0x432
                    0x0432                  _C1RXM0EID = 0x432
                    0x0432                  _C1RXM0EIDbits = 0x432
                    0x0432                  C1TR23CON = 0x432
                    0x0432                  _C1TR23CON = 0x432
                    0x0432                  _C1TR23CONbits = 0x432
                    0x0434                  C1RXM1SID = 0x434
                    0x0434                  _C1RXM1SID = 0x434
                    0x0434                  _C1RXM1SIDbits = 0x434
                    0x0434                  C1TR45CON = 0x434
                    0x0434                  _C1TR45CON = 0x434
                    0x0434                  _C1TR45CONbits = 0x434
                    0x0436                  C1RXM1EID = 0x436
                    0x0436                  _C1RXM1EID = 0x436
                    0x0436                  _C1RXM1EIDbits = 0x436
                    0x0436                  C1TR67CON = 0x436
                    0x0436                  _C1TR67CON = 0x436
                    0x0436                  _C1TR67CONbits = 0x436
                    0x0438                  C1RXM2SID = 0x438
                    0x0438                  _C1RXM2SID = 0x438
                    0x0438                  _C1RXM2SIDbits = 0x438
                    0x043a                  C1RXM2EID = 0x43a
                    0x043a                  _C1RXM2EID = 0x43a
                    0x043a                  _C1RXM2EIDbits = 0x43a
                    0x0440                  C1RXD = 0x440
                    0x0440                  _C1RXD = 0x440
                    0x0440                  C1RXF0SID = 0x440
                    0x0440                  _C1RXF0SID = 0x440
                    0x0440                  _C1RXF0SIDbits = 0x440
                    0x0442                  C1RXF0EID = 0x442
                    0x0442                  _C1RXF0EID = 0x442
                    0x0442                  _C1RXF0EIDbits = 0x442
                    0x0442                  C1TXD = 0x442
                    0x0442                  _C1TXD = 0x442
                    0x0444                  C1RXF1SID = 0x444
                    0x0444                  _C1RXF1SID = 0x444
                    0x0444                  _C1RXF1SIDbits = 0x444
                    0x0446                  C1RXF1EID = 0x446
                    0x0446                  _C1RXF1EID = 0x446
                    0x0446                  _C1RXF1EIDbits = 0x446
                    0x0448                  C1RXF2SID = 0x448
                    0x0448                  _C1RXF2SID = 0x448
                    0x0448                  _C1RXF2SIDbits = 0x448
                    0x044a                  C1RXF2EID = 0x44a
                    0x044a                  _C1RXF2EID = 0x44a
                    0x044a                  _C1RXF2EIDbits = 0x44a
                    0x044c                  C1RXF3SID = 0x44c
                    0x044c                  _C1RXF3SID = 0x44c
                    0x044c                  _C1RXF3SIDbits = 0x44c
                    0x044e                  C1RXF3EID = 0x44e
                    0x044e                  _C1RXF3EID = 0x44e
                    0x044e                  _C1RXF3EIDbits = 0x44e
                    0x0450                  C1RXF4SID = 0x450
                    0x0450                  _C1RXF4SID = 0x450
                    0x0450                  _C1RXF4SIDbits = 0x450
                    0x0452                  C1RXF4EID = 0x452
                    0x0452                  _C1RXF4EID = 0x452
                    0x0452                  _C1RXF4EIDbits = 0x452
                    0x0454                  C1RXF5SID = 0x454
                    0x0454                  _C1RXF5SID = 0x454
                    0x0454                  _C1RXF5SIDbits = 0x454
                    0x0456                  C1RXF5EID = 0x456
                    0x0456                  _C1RXF5EID = 0x456
                    0x0456                  _C1RXF5EIDbits = 0x456
                    0x0458                  C1RXF6SID = 0x458
                    0x0458                  _C1RXF6SID = 0x458
                    0x0458                  _C1RXF6SIDbits = 0x458
                    0x045a                  C1RXF6EID = 0x45a
                    0x045a                  _C1RXF6EID = 0x45a
                    0x045a                  _C1RXF6EIDbits = 0x45a
                    0x045c                  C1RXF7SID = 0x45c
                    0x045c                  _C1RXF7SID = 0x45c
                    0x045c                  _C1RXF7SIDbits = 0x45c
                    0x045e                  C1RXF7EID = 0x45e
                    0x045e                  _C1RXF7EID = 0x45e
                    0x045e                  _C1RXF7EIDbits = 0x45e
                    0x0460                  C1RXF8SID = 0x460
                    0x0460                  _C1RXF8SID = 0x460
                    0x0460                  _C1RXF8SIDbits = 0x460
                    0x0462                  C1RXF8EID = 0x462
                    0x0462                  _C1RXF8EID = 0x462
                    0x0462                  _C1RXF8EIDbits = 0x462
                    0x0464                  C1RXF9SID = 0x464
                    0x0464                  _C1RXF9SID = 0x464
                    0x0464                  _C1RXF9SIDbits = 0x464
                    0x0466                  C1RXF9EID = 0x466
                    0x0466                  _C1RXF9EID = 0x466
                    0x0466                  _C1RXF9EIDbits = 0x466
                    0x0468                  C1RXF10SID = 0x468
                    0x0468                  _C1RXF10SID = 0x468
                    0x0468                  _C1RXF10SIDbits = 0x468
                    0x046a                  C1RXF10EID = 0x46a
                    0x046a                  _C1RXF10EID = 0x46a
                    0x046a                  _C1RXF10EIDbits = 0x46a
                    0x046c                  C1RXF11SID = 0x46c
                    0x046c                  _C1RXF11SID = 0x46c
                    0x046c                  _C1RXF11SIDbits = 0x46c
                    0x046e                  C1RXF11EID = 0x46e
                    0x046e                  _C1RXF11EID = 0x46e
                    0x046e                  _C1RXF11EIDbits = 0x46e
                    0x0470                  C1RXF12SID = 0x470
                    0x0470                  _C1RXF12SID = 0x470
                    0x0470                  _C1RXF12SIDbits = 0x470
                    0x0472                  C1RXF12EID = 0x472
                    0x0472                  _C1RXF12EID = 0x472
                    0x0472                  _C1RXF12EIDbits = 0x472
                    0x0474                  C1RXF13SID = 0x474
                    0x0474                  _C1RXF13SID = 0x474
                    0x0474                  _C1RXF13SIDbits = 0x474
                    0x0476                  C1RXF13EID = 0x476
                    0x0476                  _C1RXF13EID = 0x476
                    0x0476                  _C1RXF13EIDbits = 0x476
                    0x0478                  C1RXF14SID = 0x478
                    0x0478                  _C1RXF14SID = 0x478
                    0x0478                  _C1RXF14SIDbits = 0x478
                    0x047a                  C1RXF14EID = 0x47a
                    0x047a                  _C1RXF14EID = 0x47a
                    0x047a                  _C1RXF14EIDbits = 0x47a
                    0x047c                  C1RXF15SID = 0x47c
                    0x047c                  _C1RXF15SID = 0x47c
                    0x047c                  _C1RXF15SIDbits = 0x47c
                    0x047e                  C1RXF15EID = 0x47e
                    0x047e                  _C1RXF15EID = 0x47e
                    0x047e                  _C1RXF15EIDbits = 0x47e
                    0x0500                  C2CTRL1 = 0x500
                    0x0500                  _C2CTRL1 = 0x500
                    0x0500                  _C2CTRL1bits = 0x500
                    0x0502                  C2CTRL2 = 0x502
                    0x0502                  _C2CTRL2 = 0x502
                    0x0502                  _C2CTRL2bits = 0x502
                    0x0504                  C2VEC = 0x504
                    0x0504                  _C2VEC = 0x504
                    0x0504                  _C2VECbits = 0x504
                    0x0506                  C2FCTRL = 0x506
                    0x0506                  _C2FCTRL = 0x506
                    0x0506                  _C2FCTRLbits = 0x506
                    0x0508                  C2FIFO = 0x508
                    0x0508                  _C2FIFO = 0x508
                    0x0508                  _C2FIFObits = 0x508
                    0x050a                  C2INTF = 0x50a
                    0x050a                  _C2INTF = 0x50a
                    0x050a                  _C2INTFbits = 0x50a
                    0x050c                  C2INTE = 0x50c
                    0x050c                  _C2INTE = 0x50c
                    0x050c                  _C2INTEbits = 0x50c
                    0x050e                  C2EC = 0x50e
                    0x050e                  _C2EC = 0x50e
                    0x050e                  _C2ECbits = 0x50e
                    0x050e                  C2RERRCNT = 0x50e
                    0x050e                  _C2RERRCNT = 0x50e
                    0x050f                  C2TERRCNT = 0x50f
                    0x050f                  _C2TERRCNT = 0x50f
                    0x0510                  C2CFG1 = 0x510
                    0x0510                  _C2CFG1 = 0x510
                    0x0510                  _C2CFG1bits = 0x510
                    0x0512                  C2CFG2 = 0x512
                    0x0512                  _C2CFG2 = 0x512
                    0x0512                  _C2CFG2bits = 0x512
                    0x0514                  C2FEN1 = 0x514
                    0x0514                  _C2FEN1 = 0x514
                    0x0514                  _C2FEN1bits = 0x514
                    0x0518                  C2FMSKSEL1 = 0x518
                    0x0518                  _C2FMSKSEL1 = 0x518
                    0x0518                  _C2FMSKSEL1bits = 0x518
                    0x051a                  C2FMSKSEL2 = 0x51a
                    0x051a                  _C2FMSKSEL2 = 0x51a
                    0x051a                  _C2FMSKSEL2bits = 0x51a
                    0x0520                  C2BUFPNT1 = 0x520
                    0x0520                  _C2BUFPNT1 = 0x520
                    0x0520                  _C2BUFPNT1bits = 0x520
                    0x0520                  C2RXFUL1 = 0x520
                    0x0520                  _C2RXFUL1 = 0x520
                    0x0520                  _C2RXFUL1bits = 0x520
                    0x0522                  C2BUFPNT2 = 0x522
                    0x0522                  _C2BUFPNT2 = 0x522
                    0x0522                  _C2BUFPNT2bits = 0x522
                    0x0522                  C2RXFUL2 = 0x522
                    0x0522                  _C2RXFUL2 = 0x522
                    0x0522                  _C2RXFUL2bits = 0x522
                    0x0524                  C2BUFPNT3 = 0x524
                    0x0524                  _C2BUFPNT3 = 0x524
                    0x0524                  _C2BUFPNT3bits = 0x524
                    0x0526                  C2BUFPNT4 = 0x526
                    0x0526                  _C2BUFPNT4 = 0x526
                    0x0526                  _C2BUFPNT4bits = 0x526
                    0x0528                  C2RXOVF1 = 0x528
                    0x0528                  _C2RXOVF1 = 0x528
                    0x0528                  _C2RXOVF1bits = 0x528
                    0x052a                  C2RXOVF2 = 0x52a
                    0x052a                  _C2RXOVF2 = 0x52a
                    0x052a                  _C2RXOVF2bits = 0x52a
                    0x0530                  C2RXM0SID = 0x530
                    0x0530                  _C2RXM0SID = 0x530
                    0x0530                  _C2RXM0SIDbits = 0x530
                    0x0530                  C2TR01CON = 0x530
                    0x0530                  _C2TR01CON = 0x530
                    0x0530                  _C2TR01CONbits = 0x530
                    0x0532                  C2RXM0EID = 0x532
                    0x0532                  _C2RXM0EID = 0x532
                    0x0532                  _C2RXM0EIDbits = 0x532
                    0x0532                  C2TR23CON = 0x532
                    0x0532                  _C2TR23CON = 0x532
                    0x0532                  _C2TR23CONbits = 0x532
                    0x0534                  C2RXM1SID = 0x534
                    0x0534                  _C2RXM1SID = 0x534
                    0x0534                  _C2RXM1SIDbits = 0x534
                    0x0534                  C2TR45CON = 0x534
                    0x0534                  _C2TR45CON = 0x534
                    0x0534                  _C2TR45CONbits = 0x534
                    0x0536                  C2RXM1EID = 0x536
                    0x0536                  _C2RXM1EID = 0x536
                    0x0536                  _C2RXM1EIDbits = 0x536
                    0x0536                  C2TR67CON = 0x536
                    0x0536                  _C2TR67CON = 0x536
                    0x0536                  _C2TR67CONbits = 0x536
                    0x0538                  C2RXM2SID = 0x538
                    0x0538                  _C2RXM2SID = 0x538
                    0x0538                  _C2RXM2SIDbits = 0x538
                    0x053a                  C2RXM2EID = 0x53a
                    0x053a                  _C2RXM2EID = 0x53a
                    0x053a                  _C2RXM2EIDbits = 0x53a
                    0x0540                  C2RXD = 0x540
                    0x0540                  _C2RXD = 0x540
                    0x0540                  C2RXF0SID = 0x540
                    0x0540                  _C2RXF0SID = 0x540
                    0x0540                  _C2RXF0SIDbits = 0x540
                    0x0542                  C2RXF0EID = 0x542
                    0x0542                  _C2RXF0EID = 0x542
                    0x0542                  _C2RXF0EIDbits = 0x542
                    0x0542                  C2TXD = 0x542
                    0x0542                  _C2TXD = 0x542
                    0x0544                  C2RXF1SID = 0x544
                    0x0544                  _C2RXF1SID = 0x544
                    0x0544                  _C2RXF1SIDbits = 0x544
                    0x0546                  C2RXF1EID = 0x546
                    0x0546                  _C2RXF1EID = 0x546
                    0x0546                  _C2RXF1EIDbits = 0x546
                    0x0548                  C2RXF2SID = 0x548
                    0x0548                  _C2RXF2SID = 0x548
                    0x0548                  _C2RXF2SIDbits = 0x548
                    0x054a                  C2RXF2EID = 0x54a
                    0x054a                  _C2RXF2EID = 0x54a
                    0x054a                  _C2RXF2EIDbits = 0x54a
                    0x054c                  C2RXF3SID = 0x54c
                    0x054c                  _C2RXF3SID = 0x54c
                    0x054c                  _C2RXF3SIDbits = 0x54c
                    0x054e                  C2RXF3EID = 0x54e
                    0x054e                  _C2RXF3EID = 0x54e
                    0x054e                  _C2RXF3EIDbits = 0x54e
                    0x0550                  C2RXF4SID = 0x550
                    0x0550                  _C2RXF4SID = 0x550
                    0x0550                  _C2RXF4SIDbits = 0x550
                    0x0552                  C2RXF4EID = 0x552
                    0x0552                  _C2RXF4EID = 0x552
                    0x0552                  _C2RXF4EIDbits = 0x552
                    0x0554                  C2RXF5SID = 0x554
                    0x0554                  _C2RXF5SID = 0x554
                    0x0554                  _C2RXF5SIDbits = 0x554
                    0x0556                  C2RXF5EID = 0x556
                    0x0556                  _C2RXF5EID = 0x556
                    0x0556                  _C2RXF5EIDbits = 0x556
                    0x0558                  C2RXF6SID = 0x558
                    0x0558                  _C2RXF6SID = 0x558
                    0x0558                  _C2RXF6SIDbits = 0x558
                    0x055a                  C2RXF6EID = 0x55a
                    0x055a                  _C2RXF6EID = 0x55a
                    0x055a                  _C2RXF6EIDbits = 0x55a
                    0x055c                  C2RXF7SID = 0x55c
                    0x055c                  _C2RXF7SID = 0x55c
                    0x055c                  _C2RXF7SIDbits = 0x55c
                    0x055e                  C2RXF7EID = 0x55e
                    0x055e                  _C2RXF7EID = 0x55e
                    0x055e                  _C2RXF7EIDbits = 0x55e
                    0x0560                  C2RXF8SID = 0x560
                    0x0560                  _C2RXF8SID = 0x560
                    0x0560                  _C2RXF8SIDbits = 0x560
                    0x0562                  C2RXF8EID = 0x562
                    0x0562                  _C2RXF8EID = 0x562
                    0x0562                  _C2RXF8EIDbits = 0x562
                    0x0564                  C2RXF9SID = 0x564
                    0x0564                  _C2RXF9SID = 0x564
                    0x0564                  _C2RXF9SIDbits = 0x564
                    0x0566                  C2RXF9EID = 0x566
                    0x0566                  _C2RXF9EID = 0x566
                    0x0566                  _C2RXF9EIDbits = 0x566
                    0x0568                  C2RXF10SID = 0x568
                    0x0568                  _C2RXF10SID = 0x568
                    0x0568                  _C2RXF10SIDbits = 0x568
                    0x056a                  C2RXF10EID = 0x56a
                    0x056a                  _C2RXF10EID = 0x56a
                    0x056a                  _C2RXF10EIDbits = 0x56a
                    0x056c                  C2RXF11SID = 0x56c
                    0x056c                  _C2RXF11SID = 0x56c
                    0x056c                  _C2RXF11SIDbits = 0x56c
                    0x056e                  C2RXF11EID = 0x56e
                    0x056e                  _C2RXF11EID = 0x56e
                    0x056e                  _C2RXF11EIDbits = 0x56e
                    0x0570                  C2RXF12SID = 0x570
                    0x0570                  _C2RXF12SID = 0x570
                    0x0570                  _C2RXF12SIDbits = 0x570
                    0x0572                  C2RXF12EID = 0x572
                    0x0572                  _C2RXF12EID = 0x572
                    0x0572                  _C2RXF12EIDbits = 0x572
                    0x0574                  C2RXF13SID = 0x574
                    0x0574                  _C2RXF13SID = 0x574
                    0x0574                  _C2RXF13SIDbits = 0x574
                    0x0576                  C2RXF13EID = 0x576
                    0x0576                  _C2RXF13EID = 0x576
                    0x0576                  _C2RXF13EIDbits = 0x576
                    0x0578                  C2RXF14SID = 0x578
                    0x0578                  _C2RXF14SID = 0x578
                    0x0578                  _C2RXF14SIDbits = 0x578
                    0x057a                  C2RXF14EID = 0x57a
                    0x057a                  _C2RXF14EID = 0x57a
                    0x057a                  _C2RXF14EIDbits = 0x57a
                    0x057c                  C2RXF15SID = 0x57c
                    0x057c                  _C2RXF15SID = 0x57c
                    0x057c                  _C2RXF15SIDbits = 0x57c
                    0x057e                  C2RXF15EID = 0x57e
                    0x057e                  _C2RXF15EID = 0x57e
                    0x057e                  _C2RXF15EIDbits = 0x57e
                    0x06c0                  ODCA = 0x6c0
                    0x06c0                  _ODCA = 0x6c0
                    0x06c0                  _ODCAbits = 0x6c0
                    0x06d2                  ODCD = 0x6d2
                    0x06d2                  _ODCD = 0x6d2
                    0x06d2                  _ODCDbits = 0x6d2
                    0x06de                  ODCF = 0x6de
                    0x06de                  _ODCF = 0x6de
                    0x06de                  _ODCFbits = 0x6de
                    0x06e4                  ODCG = 0x6e4
                    0x06e4                  _ODCG = 0x6e4
                    0x06e4                  _ODCGbits = 0x6e4
                    0x0740                  RCON = 0x740
                    0x0740                  _RCON = 0x740
                    0x0740                  _RCONbits = 0x740
                    0x0742                  OSCCON = 0x742
                    0x0742                  _OSCCON = 0x742
                    0x0742                  _OSCCONbits = 0x742
                    0x0742                  OSCCONL = 0x742
                    0x0742                  _OSCCONL = 0x742
                    0x0743                  OSCCONH = 0x743
                    0x0743                  _OSCCONH = 0x743
                    0x0744                  CLKDIV = 0x744
                    0x0744                  _CLKDIV = 0x744
                    0x0744                  _CLKDIVbits = 0x744
                    0x0746                  PLLFBD = 0x746
                    0x0746                  _PLLFBD = 0x746
                    0x0746                  _PLLFBDbits = 0x746
                    0x0748                  OSCTUN = 0x748
                    0x0748                  _OSCTUN = 0x748
                    0x0748                  _OSCTUNbits = 0x748
                    0x0750                  BSRAM = 0x750
                    0x0750                  _BSRAM = 0x750
                    0x0750                  _BSRAMbits = 0x750
                    0x0752                  SSRAM = 0x752
                    0x0752                  _SSRAM = 0x752
                    0x0752                  _SSRAMbits = 0x752
                    0x0760                  NVMCON = 0x760
                    0x0760                  _NVMCON = 0x760
                    0x0760                  _NVMCONbits = 0x760
                    0x0766                  NVMKEY = 0x766
                    0x0766                  _NVMKEY = 0x766
                    0x0770                  PMD1 = 0x770
                    0x0770                  _PMD1 = 0x770
                    0x0770                  _PMD1bits = 0x770
                    0x0772                  PMD2 = 0x772
                    0x0772                  _PMD2 = 0x772
                    0x0772                  _PMD2bits = 0x772
                    0x0774                  PMD3 = 0x774
                    0x0774                  _PMD3 = 0x774
                    0x0774                  _PMD3bits = 0x774
                    0x0022                  ACCA = 0x22
                    0x0022                  _ACCA = 0x22
                    0x0028                  ACCB = 0x28
                    0x0028                  _ACCB = 0x28
                    0x0440                  CAN1 = 0x440
                    0x0440                  _CAN1 = 0x440
                    0x0540                  CAN2 = 0x540
                    0x0540                  _CAN2 = 0x540
                    0x0140                  IC1 = 0x140
                    0x0140                  _IC1 = 0x140
                    0x0144                  IC2 = 0x144
                    0x0144                  _IC2 = 0x144
                    0x0148                  IC3 = 0x148
                    0x0148                  _IC3 = 0x148
                    0x014c                  IC4 = 0x14c
                    0x014c                  _IC4 = 0x14c
                    0x0150                  IC5 = 0x150
                    0x0150                  _IC5 = 0x150
                    0x0154                  IC6 = 0x154
                    0x0154                  _IC6 = 0x154
                    0x0158                  IC7 = 0x158
                    0x0158                  _IC7 = 0x158
                    0x015c                  IC8 = 0x15c
                    0x015c                  _IC8 = 0x15c
                    0x0180                  OC1 = 0x180
                    0x0180                  _OC1 = 0x180
                    0x0186                  OC2 = 0x186
                    0x0186                  _OC2 = 0x186
                    0x018c                  OC3 = 0x18c
                    0x018c                  _OC3 = 0x18c
                    0x0192                  OC4 = 0x192
                    0x0192                  _OC4 = 0x192
                    0x0198                  OC5 = 0x198
                    0x0198                  _OC5 = 0x198
                    0x019e                  OC6 = 0x19e
                    0x019e                  _OC6 = 0x19e
                    0x01a4                  OC7 = 0x1a4
                    0x01a4                  _OC7 = 0x1a4
                    0x01aa                  OC8 = 0x1aa
                    0x01aa                  _OC8 = 0x1aa
                    0x0240                  SPI1 = 0x240
                    0x0240                  _SPI1 = 0x240
                    0x0260                  SPI2 = 0x260
                    0x0260                  _SPI2 = 0x260
                    0x0220                  UART1 = 0x220
                    0x0220                  _UART1 = 0x220
                    0x0230                  UART2 = 0x230
                    0x0230                  _UART2 = 0x230
START GROUP
LOAD /Applications/microchip/xc16/v1.11/bin/bin/../../lib/liblega-pic30-coff.a
LOAD /Applications/microchip/xc16/v1.11/bin/bin/../../lib/libm-coff.a
LOAD /Applications/microchip/xc16/v1.11/bin/bin/../../lib/liblega-c-coff.a
END GROUP
OUTPUT(dist/ICD3/production/lino-imu-udb4.production.cof coff-pic30)
LOAD FGS
LOAD jump_table
LOAD data_init
LOAD heap

__c30_signature
                  0x00005e        0x318
 __c30_signature
                  0x00005e          0x6 build/ICD3/production/_ext/1077471063/estWind.o
 __c30_signature
                  0x000064          0x6 build/ICD3/production/_ext/1077471063/estYawDrift.o
 __c30_signature
                  0x00006a          0x6 build/ICD3/production/_ext/1077471063/gpsParseCommon.o
 __c30_signature
                  0x000070          0x6 build/ICD3/production/_ext/1077471063/gpsParseSTD.o
 __c30_signature
                  0x000076          0x6 build/ICD3/production/_ext/1077471063/gpsParseUBX.o
 __c30_signature
                  0x00007c          0x6 build/ICD3/production/_ext/1077471063/mathlibNAV.o
 __c30_signature
                  0x000082          0x6 build/ICD3/production/_ext/1077471063/rmat.o
 __c30_signature
                  0x000088          0x6 build/ICD3/production/_ext/1077471063/libDCM.o
 __c30_signature
                  0x00008e          0x6 build/ICD3/production/_ext/1077471063/deadReckoning.o
 __c30_signature
                  0x000094          0x6 build/ICD3/production/_ext/1077471063/gpsParseMTEK.o
 __c30_signature
                  0x00009a          0x6 build/ICD3/production/_ext/1077454706/background.o
 __c30_signature
                  0x0000a0          0x6 build/ICD3/production/_ext/1077454706/libUDB.o
 __c30_signature
                  0x0000a6          0x6 build/ICD3/production/_ext/1077454706/analog2digital_udb4.o
 __c30_signature
                  0x0000ac          0x6 build/ICD3/production/_ext/1077454706/magneto_udb4.o
 __c30_signature
                  0x0000b2          0x6 build/ICD3/production/_ext/1077454706/radioIn_udb4.o
 __c30_signature
                  0x0000b8          0x6 build/ICD3/production/_ext/1077454706/servoOut.o
 __c30_signature
                  0x0000be          0x6 build/ICD3/production/_ext/1077454706/serialIO_udb4.o
 __c30_signature
                  0x0000c4          0x6 build/ICD3/production/_ext/1077454706/osd.o
 __c30_signature
                  0x0000ca          0x6 build/ICD3/production/_ext/1077454706/24LC256.o
 __c30_signature
                  0x0000d0          0x6 build/ICD3/production/_ext/1077454706/events.o
 __c30_signature
                  0x0000d6          0x6 build/ICD3/production/_ext/1077454706/I2C1_udb4.o
 __c30_signature
                  0x0000dc          0x6 build/ICD3/production/_ext/1077454706/I2C2_udb4.o
 __c30_signature
                  0x0000e2          0x6 build/ICD3/production/_ext/1077454706/dsNavI2C.o
 __c30_signature
                  0x0000e8          0x6 build/ICD3/production/_ext/1472/tesPoint.o
 __c30_signature
                  0x0000ee          0x6 build/ICD3/production/_ext/1472/config_tests.o
 __c30_signature
                  0x0000f4          0x6 build/ICD3/production/_ext/1472/behavior.o
 __c30_signature
                  0x0000fa          0x6 build/ICD3/production/_ext/1472/cameraCntrl.o
 __c30_signature
                  0x000100          0x6 build/ICD3/production/_ext/1472/main.o
 __c30_signature
                  0x000106          0x6 build/ICD3/production/_ext/1472/navigate.o
 __c30_signature
                  0x00010c          0x6 build/ICD3/production/_ext/1472/pitchCntrl.o
 __c30_signature
                  0x000112          0x6 build/ICD3/production/_ext/1472/rollCntrl.o
 __c30_signature
                  0x000118          0x6 build/ICD3/production/_ext/1472/servoMix.o
 __c30_signature
                  0x00011e          0x6 build/ICD3/production/_ext/1472/states.o
 __c30_signature
                  0x000124          0x6 build/ICD3/production/_ext/1472/yawCntrl.o
 __c30_signature
                  0x00012a          0x6 build/ICD3/production/_ext/1472/telemetry.o
 __c30_signature
                  0x000130          0x6 build/ICD3/production/_ext/1472/servoPrepare.o
 __c30_signature
                  0x000136          0x6 build/ICD3/production/_ext/1472/flightplan-waypoints.o
 __c30_signature
                  0x00013c          0x6 build/ICD3/production/_ext/1472/flightplan-logo.o
 __c30_signature
                  0x000142          0x6 build/ICD3/production/_ext/1472/mp_osd.o
 __c30_signature
                  0x000148          0x6 build/ICD3/production/_ext/1472/altitudeCntrl.o
 __c30_signature
                  0x00014e          0x6 build/ICD3/production/_ext/1472/MAVLink.o
 __c30_signature
                  0x000154          0x6 build/ICD3/production/_ext/1472/mode_switch.o
 __c30_signature
                  0x00015a          0x6 build/ICD3/production/_ext/1472/data_services.o
 __c30_signature
                  0x000160          0x6 build/ICD3/production/_ext/1472/data_storage.o
 __c30_signature
                  0x000166          0x6 build/ICD3/production/_ext/1472/nv_memory_table.o
 __c30_signature
                  0x00016c          0x6 build/ICD3/production/_ext/1472/parameter_table.o
 __c30_signature
                  0x000172          0x6 build/ICD3/production/_ext/1472/airspeedCntrl.o
 __c30_signature
                  0x000178          0x6 build/ICD3/production/_ext/1472/altitudeCntrlVariable.o
 __c30_signature
                  0x00017e          0x6 build/ICD3/production/_ext/656130150/time_conversion.o
 __c30_signature
                  0x000184          0x6 /Applications/microchip/xc16/v1.11/bin/bin/../../lib/liblega-pic30-coff.a(crt0_standard.o)
 __c30_signature
                  0x00018a          0x6 /Applications/microchip/xc16/v1.11/bin/bin/../../lib/liblega-pic30-coff.a(delay32.Lo)
 __c30_signature
                  0x000190          0x6 /Applications/microchip/xc16/v1.11/bin/bin/../../lib/liblega-pic30-coff.a(data_init_standard.o)
 __c30_signature
                  0x000196          0x6 /Applications/microchip/xc16/v1.11/bin/bin/../../lib/libm-coff.a(divsi3.o)
 __c30_signature
                  0x00019c          0x6 /Applications/microchip/xc16/v1.11/bin/bin/../../lib/libm-coff.a(muldi3.o)
 __c30_signature
                  0x0001a2          0x6 /Applications/microchip/xc16/v1.11/bin/bin/../../lib/libm-coff.a(divmoddi3.o)
 __c30_signature
                  0x0001a8          0x6 /Applications/microchip/xc16/v1.11/bin/bin/../../lib/libm-coff.a(udivsi3.o)
 __c30_signature
                  0x0001ae          0x6 /Applications/microchip/xc16/v1.11/bin/bin/../../lib/libm-coff.a(floatsidf.o)
 __c30_signature
                  0x0001b4          0x6 /Applications/microchip/xc16/v1.11/bin/bin/../../lib/libm-coff.a(muldf3.o)
 __c30_signature
                  0x0001ba          0x6 /Applications/microchip/xc16/v1.11/bin/bin/../../lib/libm-coff.a(fixdfsi.o)
 __c30_signature
                  0x0001c0          0x6 /Applications/microchip/xc16/v1.11/bin/bin/../../lib/libm-coff.a(extendsfdf.o)
 __c30_signature
                  0x0001c6          0x6 /Applications/microchip/xc16/v1.11/bin/bin/../../lib/libm-coff.a(adddf3.o)
 __c30_signature
                  0x0001cc          0x6 /Applications/microchip/xc16/v1.11/bin/bin/../../lib/libm-coff.a(truncdfsf.o)
 __c30_signature
                  0x0001d2          0x6 /Applications/microchip/xc16/v1.11/bin/bin/../../lib/libm-coff.a(floatsisf.o)
 __c30_signature
                  0x0001d8          0x6 /Applications/microchip/xc16/v1.11/bin/bin/../../lib/libm-coff.a(fixsfsi.o)
 __c30_signature
                  0x0001de          0x6 /Applications/microchip/xc16/v1.11/bin/bin/../../lib/libm-coff.a(mulsf3.o)
 __c30_signature
                  0x0001e4          0x6 /Applications/microchip/xc16/v1.11/bin/bin/../../lib/libm-coff.a(fgtge.o)
 __c30_signature
                  0x0001ea          0x6 /Applications/microchip/xc16/v1.11/bin/bin/../../lib/libm-coff.a(floor.o)
 __c30_signature
                  0x0001f0          0x6 /Applications/microchip/xc16/v1.11/bin/bin/../../lib/libm-coff.a(subdf3.o)
 __c30_signature
                  0x0001f6          0x6 /Applications/microchip/xc16/v1.11/bin/bin/../../lib/libm-coff.a(dgtge.o)
 __c30_signature
                  0x0001fc          0x6 /Applications/microchip/xc16/v1.11/bin/bin/../../lib/libm-coff.a(deqltle.o)
 __c30_signature
                  0x000202          0x6 /Applications/microchip/xc16/v1.11/bin/bin/../../lib/libm-coff.a(floatunsidf.o)
 __c30_signature
                  0x000208          0x6 /Applications/microchip/xc16/v1.11/bin/bin/../../lib/libm-coff.a(divdf3.o)
 __c30_signature
                  0x00020e          0x6 /Applications/microchip/xc16/v1.11/bin/bin/../../lib/libm-coff.a(fixunsdfsi.o)
 __c30_signature
                  0x000214          0x6 /Applications/microchip/xc16/v1.11/bin/bin/../../lib/libm-coff.a(fmod.o)
 __c30_signature
                  0x00021a          0x6 /Applications/microchip/xc16/v1.11/bin/bin/../../lib/libm-coff.a(floatunsisf.o)
 __c30_signature
                  0x000220          0x6 /Applications/microchip/xc16/v1.11/bin/bin/../../lib/libm-coff.a(addsf3.o)
 __c30_signature
                  0x000226          0x6 /Applications/microchip/xc16/v1.11/bin/bin/../../lib/libm-coff.a(umuldi3.o)
 __c30_signature
                  0x00022c          0x6 /Applications/microchip/xc16/v1.11/bin/bin/../../lib/libm-coff.a(floatdidf.o)
 __c30_signature
                  0x000232          0x6 /Applications/microchip/xc16/v1.11/bin/bin/../../lib/libm-coff.a(dunpack2.o)
 __c30_signature
                  0x000238          0x6 /Applications/microchip/xc16/v1.11/bin/bin/../../lib/libm-coff.a(dpack.o)
 __c30_signature
                  0x00023e          0x6 /Applications/microchip/xc16/v1.11/bin/bin/../../lib/libm-coff.a(dunpack.o)
 __c30_signature
                  0x000244          0x6 /Applications/microchip/xc16/v1.11/bin/bin/../../lib/libm-coff.a(funpack.o)
 __c30_signature
                  0x00024a          0x6 /Applications/microchip/xc16/v1.11/bin/bin/../../lib/libm-coff.a(fpack.o)
 __c30_signature
                  0x000250          0x6 /Applications/microchip/xc16/v1.11/bin/bin/../../lib/libm-coff.a(floatdisf.o)
 __c30_signature
                  0x000256          0x6 /Applications/microchip/xc16/v1.11/bin/bin/../../lib/libm-coff.a(funpack2.o)
 __c30_signature
                  0x00025c          0x6 /Applications/microchip/xc16/v1.11/bin/bin/../../lib/libm-coff.a(futil.o)
 __c30_signature
                  0x000262          0x6 /Applications/microchip/xc16/v1.11/bin/bin/../../lib/libm-coff.a(fcompare.o)
 __c30_signature
                  0x000268          0x6 /Applications/microchip/xc16/v1.11/bin/bin/../../lib/libm-coff.a(dchop.o)
 __c30_signature
                  0x00026e          0x6 /Applications/microchip/xc16/v1.11/bin/bin/../../lib/libm-coff.a(dcompare.o)
 __c30_signature
                  0x000274          0x6 /Applications/microchip/xc16/v1.11/bin/bin/../../lib/libm-coff.a(floatundidf.o)
 __c30_signature
                  0x00027a          0x6 /Applications/microchip/xc16/v1.11/bin/bin/../../lib/libm-coff.a(dmodrem.o)
 __c30_signature
                  0x000280          0x6 /Applications/microchip/xc16/v1.11/bin/bin/../../lib/libm-coff.a(floatundisf.o)
 __c30_signature
                  0x000286          0x6 /Applications/microchip/xc16/v1.11/bin/bin/../../lib/libm-coff.a(dpropagateNaN.o)
 __c30_signature
                  0x00028c          0x6 /Applications/microchip/xc16/v1.11/bin/bin/../../lib/libm-coff.a(dtype.o)
 __c30_signature
                  0x000292          0x6 /Applications/microchip/xc16/v1.11/bin/bin/../../lib/libm-coff.a(errno.o)
 __c30_signature
                  0x000298          0x6 /Applications/microchip/xc16/v1.11/bin/bin/../../lib/liblega-c-coff.a(strlen.XXo)
 __c30_signature
                  0x00029e          0x6 /Applications/microchip/xc16/v1.11/bin/bin/../../lib/liblega-c-coff.a(vsnprint.XXo)
 __c30_signature
                  0x0002a4          0x6 /Applications/microchip/xc16/v1.11/bin/bin/../../lib/liblega-c-coff.a(printf_cdnopsuxX.dXXo)
 __c30_signature
                  0x0002aa          0x6 /Applications/microchip/xc16/v1.11/bin/bin/../../lib/liblega-c-coff.a(memcpy.XXo)
 __c30_signature
                  0x0002b0          0x6 /Applications/microchip/xc16/v1.11/bin/bin/../../lib/liblega-c-coff.a(xprintf.XXo)
 __c30_signature
                  0x0002b6          0x6 /Applications/microchip/xc16/v1.11/bin/bin/../../lib/liblega-c-coff.a(fwrite.XXo)
 __c30_signature
                  0x0002bc          0x6 /Applications/microchip/xc16/v1.11/bin/bin/../../lib/liblega-c-coff.a(xfiles.XXo)
 __c30_signature
                  0x0002c2          0x6 /Applications/microchip/xc16/v1.11/bin/bin/../../lib/liblega-c-coff.a(xprintf_cdnopsuxX.dXXo)
 __c30_signature
                  0x0002c8          0x6 /Applications/microchip/xc16/v1.11/bin/bin/../../lib/liblega-c-coff.a(xvacopy.XXo)
 __c30_signature
                  0x0002ce          0x6 /Applications/microchip/xc16/v1.11/bin/bin/../../lib/liblega-c-coff.a(strchr.XXo)
 __c30_signature
                  0x0002d4          0x6 /Applications/microchip/xc16/v1.11/bin/bin/../../lib/liblega-c-coff.a(xputfld.XXo)
 __c30_signature
                  0x0002da          0x6 /Applications/microchip/xc16/v1.11/bin/bin/../../lib/liblega-c-coff.a(xputtxt.XXo)
 __c30_signature
                  0x0002e0          0x6 /Applications/microchip/xc16/v1.11/bin/bin/../../lib/liblega-c-coff.a(xfwprep.XXo)
 __c30_signature
                  0x0002e6          0x6 /Applications/microchip/xc16/v1.11/bin/bin/../../lib/liblega-c-coff.a(memchr.XXo)
 __c30_signature
                  0x0002ec          0x6 /Applications/microchip/xc16/v1.11/bin/bin/../../lib/liblega-c-coff.a(fflush.XXo)
 __c30_signature
                  0x0002f2          0x6 /Applications/microchip/xc16/v1.11/bin/bin/../../lib/liblega-c-coff.a(xputfld_cdnopsuxX.dXXo)
 __c30_signature
                  0x0002f8          0x6 /Applications/microchip/xc16/v1.11/bin/bin/../../lib/liblega-c-coff.a(xldtob.XXo)
 __c30_signature
                  0x0002fe          0x6 /Applications/microchip/xc16/v1.11/bin/bin/../../lib/liblega-c-coff.a(xlitob.XXo)
 __c30_signature
                  0x000304          0x6 /Applications/microchip/xc16/v1.11/bin/bin/../../lib/liblega-c-coff.a(malloc.XXo)
 __c30_signature
                  0x00030a          0x6 /Applications/microchip/xc16/v1.11/bin/bin/../../lib/liblega-c-coff.a(fclose.XXo)
 __c30_signature
                  0x000310          0x6 /Applications/microchip/xc16/v1.11/bin/bin/../../lib/liblega-c-coff.a(xldunsca.XXo)
 __c30_signature
                  0x000316          0x6 /Applications/microchip/xc16/v1.11/bin/bin/../../lib/liblega-c-coff.a(xldscale.XXo)
 __c30_signature
                  0x00031c          0x6 /Applications/microchip/xc16/v1.11/bin/bin/../../lib/liblega-c-coff.a(ldiv.XXo)
 __c30_signature
                  0x000322          0x6 /Applications/microchip/xc16/v1.11/bin/bin/../../lib/liblega-c-coff.a(xgenld.XXo)
 __c30_signature
                  0x000328          0x6 /Applications/microchip/xc16/v1.11/bin/bin/../../lib/liblega-c-coff.a(xgetmem.XXo)
 __c30_signature
                  0x00032e          0x6 /Applications/microchip/xc16/v1.11/bin/bin/../../lib/liblega-c-coff.a(free.XXo)
 __c30_signature
                  0x000334          0x6 /Applications/microchip/xc16/v1.11/bin/bin/../../lib/liblega-c-coff.a(xatexit.XXo)
 __c30_signature
                  0x00033a          0x6 /Applications/microchip/xc16/v1.11/bin/bin/../../lib/liblega-c-coff.a(xdnorm.XXo)
 __c30_signature
                  0x000340          0x6 /Applications/microchip/xc16/v1.11/bin/bin/../../lib/liblega-c-coff.a(div.XXo)
 __c30_signature
                  0x000346          0x6 /Applications/microchip/xc16/v1.11/bin/bin/../../lib/liblega-pic30-coff.a(write.Lo)
 __c30_signature
                  0x00034c          0x6 /Applications/microchip/xc16/v1.11/bin/bin/../../lib/liblega-pic30-coff.a(close.Lo)
 __c30_signature
                  0x000352          0x6 /Applications/microchip/xc16/v1.11/bin/bin/../../lib/liblega-pic30-coff.a(remove.Lo)
 __c30_signature
                  0x000358          0x6 /Applications/microchip/xc16/v1.11/bin/bin/../../lib/liblega-pic30-coff.a(sbrk.Lo)
 __c30_signature
                  0x00035e          0x6 /Applications/microchip/xc16/v1.11/bin/bin/../../lib/liblega-pic30-coff.a(c30_uart.Lo)
 __c30_signature
                  0x000364          0x6 /Applications/microchip/xc16/v1.11/bin/bin/../../lib/liblega-pic30-coff.a(brk.Lo)
 __c30_signature
                  0x00036a          0x6 /Applications/microchip/xc16/v1.11/bin/bin/../../lib/libm-coff.a(mulsi3.o)
 __c30_signature
                  0x000370          0x6 /Applications/microchip/xc16/v1.11/bin/bin/../../lib/libm-coff.a(umodsi3.o)

_0x138d2e051352fb1
                    0x7fc0          0xc
 _0x138d2e051352fb1
                    0x7fc0          0xc build/ICD3/production/_ext/1077454706/analog2digital_udb4.o
                    0x7fc0                  BufferB

_0x138d28451352fb1
                    0x7fe0          0xc
 _0x138d28451352fb1
                    0x7fe0          0xc build/ICD3/production/_ext/1077454706/analog2digital_udb4.o
                    0x7fe0                  BufferA

.nbss               0x0800          0x2
 .nbss              0x0800          0x2 /Applications/microchip/xc16/v1.11/bin/bin/../../lib/libm-coff.a(errno.o)
                    0x0800                  errno

.bss                0x0802        0x308
 .bss               0x0802        0x308 build/ICD3/production/_ext/1472/telemetry.o
                    0x0802                  voltage_temp
                    0x0804                  fp_high_byte
                    0x0805                  fp_checksum
                    0x0806                  serial_buffer
                    0x0906                  Tmp_serial_buffer
                    0x0a06                  RX_serial_buffer
                    0x0b06                  RxBuffindx
                    0x0b08                  RxBuffCnt

.data               0x0b0a        0x12e
 .data              0x0b0a         0xa6 build/ICD3/production/_ext/1077471063/rmat.o
                    0x0b0a                  ggain
                    0x0b10                  spin_rate
                    0x0b12                  spin_axis
                    0x0b18                  rmat
                    0x0b2a                  rmatDelayCompensated
                    0x0b3c                  omegagyro
                    0x0b42                  omega
                    0x0b48                  omegacorrP
                    0x0b4e                  omegacorrI
                    0x0b54                  accelEarth
                    0x0b5a                  gyroCorrectionIntegral
                    0x0b66                  omegaAccum
                    0x0b6c                  gplane
                    0x0b72                  dirovergndHGPS
                    0x0b78                  dirovergndHRmat
                    0x0b7e                  errorRP
                    0x0b84                  errorYawground
                    0x0b8a                  errorYawplane
                    0x0b90                  error
                    0x0b92                  accelerometer_earth_integral
                    0x0b9e                  GPS_velocity_previous
                    0x0ba4                  accelerometer_samples
                    0x0ba6                  magAlignment
                    0x0bae                  mag_latency_counter
 .data              0x0bb0         0x88 /Applications/microchip/xc16/v1.11/bin/bin/../../lib/liblega-c-coff.a(xfiles.XXo)
                    0x0bb0                  _Stdin
                    0x0bd8                  _Stdout
                    0x0c00                  _Stderr
                    0x0c28                  _Files

.bss                0x0c38         0x80
 .bss               0x0c38         0x80 build/ICD3/production/_ext/1077454706/events.o
                    0x0c38                  events

.data               0x0cb8         0x7a
 .data              0x0cb8         0x7a /Applications/microchip/xc16/v1.11/bin/bin/../../lib/liblega-c-coff.a(xldtob.XXo)

.bss                0x0d32         0x92
 .bss               0x0d32         0x4a build/ICD3/production/_ext/1077454706/analog2digital_udb4.o
                    0x0d32                  udb_xaccel
                    0x0d3c                  udb_yaccel
                    0x0d46                  udb_zaccel
                    0x0d50                  udb_xrate
                    0x0d5a                  udb_yrate
                    0x0d64                  udb_zrate
                    0x0d6e                  udb_vref
                    0x0d78                  vref_adj
                    0x0d7a                  sample_count
 .bss               0x0d7c         0x48 build/ICD3/production/_ext/1077471063/gpsParseSTD.o
                    0x0d7c                  payloadlength
                    0x0d7e                  un
                    0x0d80                  SatIdList_gps
                    0x0d84                  Hepe_gps
                    0x0d88                  UtcYear_gps
                    0x0d8a                  UtcSeconds_gps
                    0x0d8c                  UtcMonth_gps
                    0x0d8d                  UtcDay_gps
                    0x0d8e                  UtcHour_gps
                    0x0d8f                  UtcMinute_gps
                    0x0d90                  svs_
                    0x0d92                  lat_gps_
                    0x0d96                  long_gps_
                    0x0d9a                  alt_sl_gps_
                    0x0d9e                  tow_
                    0x0da2                  nav_valid_
                    0x0da4                  nav_type_
                    0x0da6                  sog_gps_
                    0x0da8                  cog_gps_
                    0x0daa                  climb_gps_
                    0x0dac                  week_no_
                    0x0dae                  SatIdList_gps_
                    0x0db2                  Hepe_gps_
                    0x0db6                  UtcYear_gps_
                    0x0db8                  UtcSeconds_gps_
                    0x0dba                  UtcMonth_gps_
                    0x0dbb                  UtcDay_gps_
                    0x0dbc                  UtcHour_gps_
                    0x0dbd                  UtcMinute_gps_
                    0x0dbe                  hdop_
                    0x0dc0                  checksum_
                    0x0dc2                  calculated_checksum

.data               0x0dc4         0x36
 .data              0x0dc4         0x36 build/ICD3/production/_ext/1077471063/deadReckoning.o
                    0x0dc4                  dead_reckon_clock
                    0x0dc6                  IMUvelocityx
                    0x0dca                  IMUvelocityy
                    0x0dce                  IMUvelocityz
                    0x0dd2                  IMUlocationx
                    0x0dd6                  IMUlocationy
                    0x0dda                  IMUlocationz
                    0x0dde                  IMUintegralAccelerationx
                    0x0de2                  IMUintegralAccelerationy
                    0x0de6                  IMUintegralAccelerationz
                    0x0dea                  air_speed_3DIMU
                    0x0dec                  total_energy
                    0x0dee                  locationErrorEarth
                    0x0df4                  velocityErrorEarth

.bss                0x0dfa         0x58
 .bss               0x0dfa         0x2c build/ICD3/production/_ext/1077471063/gpsParseCommon.o
                    0x0dfa                  lat_gps
                    0x0dfe                  long_gps
                    0x0e02                  alt_sl_gps
                    0x0e06                  tow
                    0x0e0a                  sog_gps
                    0x0e0c                  cog_gps
                    0x0e0e                  climb_gps
                    0x0e10                  week_no
                    0x0e12                  hdop
                    0x0e14                  lat_origin
                    0x0e18                  long_origin
                    0x0e1c                  alt_origin
                    0x0e20                  svs
                    0x0e21                  lat_cir
                    0x0e22                  gps_data_age
                    0x0e24                  actual_dir
                    0x0e25                  calculated_heading
 .bss               0x0e26         0x2c build/ICD3/production/_ext/1077471063/rmat.o
                    0x0e26                  declinationVector
                    0x0e2a                  dcm_declination_angle
                    0x0e2c                  magFieldEarth
                    0x0e32                  rmatPrevious
                    0x0e44                  magFieldEarthNormalizedPrevious
                    0x0e4a                  magFieldBodyMagnitudePrevious
                    0x0e4c                  magFieldBodyPrevious

.data               0x0e52         0x54
 .data              0x0e52         0x2a build/ICD3/production/_ext/1077471063/gpsParseCommon.o
                    0x0e52                  GPSlocation
                    0x0e58                  GPSvelocity
                    0x0e5e                  cos_lat
                    0x0e60                  gps_out_buffer
                    0x0e62                  gps_out_buffer_length
                    0x0e64                  gps_out_index
                    0x0e66                  cog_previous
                    0x0e68                  ground_velocity_magnitudeXY
                    0x0e6a                  sog_previous
                    0x0e6c                  climb_rate_previous
                    0x0e6e                  forward_acceleration
                    0x0e70                  velocity_previous
                    0x0e72                  air_speed_magnitudeXY
                    0x0e74                  air_speed_3DGPS
                    0x0e76                  location_previous
 .data              0x0e7c         0x2a build/ICD3/production/_ext/1077454706/magneto_udb4.o
                    0x0e7c                  hmc5883read_index
                    0x0e7d                  hmc5883write_index
                    0x0e7e                  enableMagRead
                    0x0e81                  enableMagCalibration
                    0x0e84                  resetMagnetometer
                    0x0e88                  udb_magOffset
                    0x0e8e                  magGain
                    0x0e94                  rawMagCalib
                    0x0e9a                  I2interrupts
                    0x0e9c                  magMessage
                    0x0e9e                  magCalibPause
                    0x0ea0                  previousMagFieldRaw

.bss                0x0ea6         0x4e
 .bss               0x0ea6         0x2a build/ICD3/production/_ext/1077454706/I2C2_udb4.o
                    0x0ea6                  i2c2_queue
 .bss               0x0ed0         0x24 build/ICD3/production/_ext/1077454706/dsNavI2C.o
                    0x0ed0                  I2CTxBuff
                    0x0ed8                  I2CRxBuff

.data               0x0ef4         0x74
 .data              0x0ef4         0x22 /Applications/microchip/xc16/v1.11/bin/bin/../../lib/liblega-c-coff.a(xlitob.XXo)
 .data              0x0f16         0x1e build/ICD3/production/_ext/1077454706/I2C2_udb4.o
                    0x0f16                  pI2C2_callback
                    0x0f18                  I2C2ERROR
                    0x0f1a                  I2C2MAXS
                    0x0f1c                  I2C2MAXQ
                    0x0f1e                  I2C2_Busy
                    0x0f20                  I2C2_state
                    0x0f22                  I2C2_Index
                    0x0f24                  I2C2_CommandByte
                    0x0f26                  I2C2_tx_data_size
                    0x0f28                  I2C2_rx_data_size
                    0x0f2a                  I2C2_command_data_size
                    0x0f2c                  pI2C2Buffer
                    0x0f2e                  pI2C2commandBuffer
                    0x0f30                  I2C2_service_handle
                    0x0f32                  I2C2_ERROR
 .data              0x0f34         0x1a /Applications/microchip/xc16/v1.11/bin/bin/../../lib/liblega-c-coff.a(xprintf.XXo)
 .data              0x0f4e         0x1a /Applications/microchip/xc16/v1.11/bin/bin/../../lib/liblega-c-coff.a(xprintf_cdnopsuxX.dXXo)

.bss                0x0f68         0x16
 .bss               0x0f68         0x16 build/ICD3/production/_ext/1472/flightplan-waypoints.o
                    0x0f68                  wp_inject

.data               0x7fcc         0x14
 .data              0x7fcc         0x14 build/ICD3/production/_ext/1077454706/background.o
                    0x7fcc                  cpu_timer
                    0x7fce                  _cpu_timer
                    0x7fd0                  idle_timer
                    0x7fd4                  _idle_timer
                    0x7fd8                  uptime
                    0x7fdc                  udb_heartbeat_counter

.bss                0x7fec         0x14
 .bss               0x7fec         0x14 build/ICD3/production/_ext/1077454706/magneto_udb4.o
                    0x7fec                  udb_magFieldBody
                    0x7ff2                  magreg
                    0x7ff8                  magFieldRaw
                    0x7ffe                  mrindex

.data               0x0f7e         0x22
 .data              0x0f7e         0x12 build/ICD3/production/_ext/1077471063/estWind.o
                    0x0f7e                  groundVelocityHistory
                    0x0f84                  fuselageDirectionHistory
                    0x0f8a                  estimatedWind
 .data              0x0f90         0x10 build/ICD3/production/_ext/1472/cameraCntrl.o
                    0x0f90                  cam_pitch_servo_pwm_delta
                    0x0f92                  cam_yaw_servo_pwm_delta
                    0x0f94                  view_location
                    0x0f9a                  camera_view

.bss                0x0fa0         0x1c
 .bss               0x0fa0         0x10 build/ICD3/production/_ext/1472/navigate.o
                    0x0fa0                  goal
 .bss               0x0fb0          0xc build/ICD3/production/_ext/1077454706/radioIn_udb4.o
                    0x0fb0                  udb_pwIn
                    0x0fb4                  udb_pwTrim
                    0x0fb8                  rise

.data               0x0fbc          0xc
 .data              0x0fbc          0xc build/ICD3/production/_ext/1472/altitudeCntrl.o
                    0x0fbc                  throttleFiltered
                    0x0fc0                  pitchAltitudeAdjust
                    0x0fc2                  filterManual
                    0x0fc4                  speed_height

.bss                0x0fc8          0xa
 .bss               0x0fc8          0xa build/ICD3/production/_ext/1077454706/servoOut.o
                    0x0fc8                  udb_pwOut
                    0x0fd0                  outputNum

.data               0x0fd2         0x14
 .data              0x0fd2          0xa build/ICD3/production/_ext/1472/navigate.o
                    0x0fd2                  togoal
                    0x0fd6                  tofinish_line
                    0x0fd8                  progress_to_goal
                    0x0fda                  desired_dir
 .data              0x0fdc          0xa build/ICD3/production/_ext/1472/telemetry.o
                    0x0fdc                  voltage_milis
                    0x0fde                  CommWd
                    0x0fe0                  sio_parse
                    0x0fe2                  sb_index
                    0x0fe4                  end_index

.bss                0x0fe6         0x14
 .bss               0x0fe6          0xa build/ICD3/production/_ext/1472/servoPrepare.o
                    0x0fe6                  pitch_control
                    0x0fe8                  roll_control
                    0x0fea                  yaw_control
                    0x0fec                  throttle_control
                    0x0fee                  wind_gain
 .bss               0x0ff0          0xa build/ICD3/production/_ext/656130150/time_conversion.o
                    0x0ff0                  TimeS

.data               0x0ffa          0x8
 .data              0x0ffa          0x8 build/ICD3/production/_ext/1472/states.o
                    0x0ffa                  waggle
                    0x0ffc                  calib_timer
                    0x0ffe                  standby_timer
                    0x1000                  stateS

.pbss               0x1002          0x8
 .pbss              0x1002          0x8 build/ICD3/production/_ext/1472/telemetry.o
                    0x1002                  trap_flags
                    0x1004                  trap_source
                    0x1008                  osc_fail_count

.data               0x100a          0xe
 .data              0x100a          0x8 build/ICD3/production/_ext/1472/flightplan-waypoints.o
                    0x100a                  waypointIndex
                    0x100c                  currentWaypointSet
                    0x100e                  numPointsInCurrentSet
                    0x1010                  wp_inject_pos
 .data              0x1012          0x6 build/ICD3/production/_ext/1472/behavior.o
                    0x1012                  cyclesUntilStartTriggerAction
                    0x1014                  cyclesUntilStopTriggerAction
                    0x1016                  currentTriggerActionValue

.bss                0x1018          0x6
 .bss               0x1018          0x6 build/ICD3/production/_ext/1472/pitchCntrl.o
                    0x1018                  pitchrate
                    0x101a                  navElevMix
                    0x101c                  elevInput

.data               0x101e          0xa
 .data              0x101e          0x6 /Applications/microchip/xc16/v1.11/bin/bin/../../lib/liblega-c-coff.a(malloc.XXo)
                    0x101e                  _Aldata
                    0x1022                  _Size_block
 .data              0x1024          0x4 build/ICD3/production/_ext/1077471063/gpsParseSTD.o
                    0x1024                  msg_parse
                    0x1026                  store_index

.bss                0x1028          0x4
 .bss               0x1028          0x4 build/ICD3/production/_ext/1077471063/libDCM.o
                    0x1028                  dcm_flags

.data               0x102c          0x8
 .data              0x102c          0x4 build/ICD3/production/_ext/1077454706/analog2digital_udb4.o
                    0x102c                  maxstack
                    0x102e                  DmaBuffer
 .data              0x1030          0x4 build/ICD3/production/_ext/1077454706/radioIn_udb4.o
                    0x1030                  failSafePulses
                    0x1032                  noisePulses

.bss                0x1034          0x6
 .bss               0x1034          0x4 build/ICD3/production/_ext/1472/behavior.o
                    0x1034                  current_orientation
                    0x1036                  desired_behavior
 .bss               0x1038          0x2 build/ICD3/production/_ext/1077454706/background.o

.data               0x103a          0x2
 .data              0x103a          0x2 build/ICD3/production/_ext/1077454706/libUDB.o
                    0x103a                  defaultCorcon

.bss                0x103c          0x2
 .bss               0x103c          0x2 build/ICD3/production/_ext/1077454706/libUDB.o
                    0x103c                  udb_flags

.data               0x103e          0x4
 .data              0x103e          0x2 build/ICD3/production/_ext/1077454706/events.o
                    0x103e                  event_init_done
 .data              0x1040          0x2 build/ICD3/production/_ext/1077454706/dsNavI2C.o
                    0x1040                  DsNavReadIndex
                    0x1041                  DsNavWriteIndex

.bss                0x1042          0x8
 .bss               0x1042          0x2 build/ICD3/production/_ext/1472/states.o
                    0x1042                  flags
 .bss               0x1044          0x2 build/ICD3/production/_ext/1472/altitudeCntrl.o
                    0x1044                  desiredHeight
 .bss               0x1046          0x2 build/ICD3/production/_ext/1472/mode_switch.o
 .bss               0x1048          0x2 /Applications/microchip/xc16/v1.11/bin/bin/../../lib/liblega-c-coff.a(fclose.XXo)

.data               0x104a          0x4
 .data              0x104a          0x2 /Applications/microchip/xc16/v1.11/bin/bin/../../lib/liblega-c-coff.a(xgenld.XXo)
 .data              0x104c          0x2 /Applications/microchip/xc16/v1.11/bin/bin/../../lib/liblega-pic30-coff.a(c30_uart.Lo)
                    0x104c                  __C30_UART

.bss                0x104e          0x2
 .bss               0x104e          0x2 /Applications/microchip/xc16/v1.11/bin/bin/../../lib/liblega-pic30-coff.a(brk.Lo)
                    0x104e                  __curbrk

.heap               0x1050        0x200
 .heap              0x1050        0x200 heap

.const              0xaf6a        0x672 load address 0x002f6a  
 .const             0xaf6a        0x492 build/ICD3/production/_ext/656130150/time_conversion.o
 .const             0xb3fc         0xe0 build/ICD3/production/_ext/1077471063/gpsParseSTD.o
                    0xb3fc                  bin_mode
                    0xb418                  mode_length
                    0xb41a                  mode
                    0xb424                  msg41parse
 .const             0xb4dc         0x82 build/ICD3/production/_ext/1077471063/mathlibNAV.o
                    0xb4dc                  sintab
 .const             0xb55e         0x42 build/ICD3/production/_ext/1472/flightplan-waypoints.o
                    0xb55e                  waypoints
                    0xb574                  rtlWaypoints
                    0xb58a                  wp_inject_byte_order
 .const             0xb5a0         0x12 build/ICD3/production/_ext/1472/cameraCntrl.o
                    0xb5a0                  pitch_servo_high_ratio
                    0xb5a2                  yaw_servo_high_ratio
                    0xb5a4                  tan_pitch_in_stabilized_mode
                    0xb5a6                  pitch_offset_centred_pwm
                    0xb5a8                  yaw_offset_centred_pwm
                    0xb5aa                  pitch_servo_pwm_max
                    0xb5ac                  pitch_servo_pwm_min
                    0xb5ae                  yaw_servo_pwm_max
                    0xb5b0                  yaw_servo_pwm_min
 .const             0xb5b2          0xc build/ICD3/production/_ext/1472/pitchCntrl.o
                    0xb5b2                  pitchgain
                    0xb5b4                  pitchkd
                    0xb5b6                  hoverpitchgain
                    0xb5b8                  hoverpitchkd
                    0xb5ba                  rudderElevMixGain
                    0xb5bc                  rollElevMixGain
 .const             0xb5be          0xa build/ICD3/production/_ext/1472/rollCntrl.o
                    0xb5be                  yawkdail
                    0xb5c0                  rollkp
                    0xb5c2                  rollkd
                    0xb5c4                  hoverrollkp
                    0xb5c6                  hoverrollkd
 .const             0xb5c8          0xa build/ICD3/production/_ext/1472/yawCntrl.o
                    0xb5c8                  yawkdrud
                    0xb5ca                  rollkprud
                    0xb5cc                  rollkdrud
                    0xb5ce                  hoveryawkp
                    0xb5d0                  hoveryawkd
 .const             0xb5d2          0x6 build/ICD3/production/_ext/1472/servoMix.o
                    0xb5d2                  aileronbgain
                    0xb5d4                  elevatorbgain
                    0xb5d6                  rudderbgain
 .const             0xb5d8          0x4 build/ICD3/production/_ext/1472/navigate.o
                    0xb5d8                  yawkpail
                    0xb5da                  yawkprud

.text             0x0035dc       0x475a
 .text            0x0035dc       0x17dc build/ICD3/production/_ext/656130150/time_conversion.o
                  0x0037c8                  TIMECONV_GetDayOfWeekFromJulianDate
                  0x0038b0                  TIMECONV_GetJulianDateFromGPSTime
                  0x0039a0                  TIMECONV_GetJulianDateFromUTCTime
                  0x003b22                  TIMECONV_GetGPSTimeFromJulianDate
                  0x003c70                  TIMECONV_GetUTCTimeFromJulianDate
                  0x00400e                  TIMECONV_GetGPSTimeFromUTCTime
                  0x004196                  TIMECONV_GetGPSTimeFromRinexTime
                  0x0042ca                  TIMECONV_GetUTCTimeFromGPSfix
                  0x00442e                  TIMECONV_GetUTCTimeFromGPSTime
                  0x0045f6                  TIMECONV_DetermineUTCOffset
                  0x0048ec                  TIMECONV_GetNumberOfDaysInMonth
                  0x0049ce                  TIMECONV_IsALeapYear
                  0x004a1c                  TIMECONV_GetDayOfYear
                  0x004be6                  TIMECONV_GetGPSTimeFromYearAndDayOfYear
 .text            0x004db8        0xba8 build/ICD3/production/_ext/1077471063/rmat.o
                  0x004db8                  dcm_init_rmat
                  0x004dd2                  VectorCross
                  0x004e82                  read_gyros
                  0x004f18                  read_accel
                  0x004f74                  omegaSOG
                  0x004fc2                  adj_accel
                  0x004ff0                  rupdate
                  0x0050da                  normalize
                  0x0051ea                  roll_pitch_drift
                  0x0051f8                  yaw_drift
                  0x00523e                  align_rmat_to_mag
                  0x005280                  quaternion_adjust
                  0x00539a                  RotVector2RotMat
                  0x005500                  mag_drift
                  0x005772                  PI_feedback
                  0x00588c                  adjust_gyro_gain
                  0x0058b6                  calibrate_gyros
                  0x00593e                  dcm_run_imu_step
 .text            0x005960        0x99a build/ICD3/production/_ext/1472/telemetry.o
                  0x005960                  init_serial
                  0x00596e                  udb_serial_callback_received_byte
                  0x00597c                  GO_sio_header
                  0x0059a2                  GO_sio_id
                  0x0059bc                  GO_sio_command
                  0x0059d6                  GO_sio_lenght
                  0x0059f6                  GO_sio_data
                  0x005a38                  GO_cmd_parser
                  0x005aaa                  GO_UartRxError
                  0x005ab2                  GO_CheckSum
                  0x005ae0                  GO_serial_input_nav_data_S
                  0x005b12                  sio_newMsg
                  0x005b44                  sio_voltage_high
                  0x005b58                  sio_voltage_low
                  0x005b72                  hex_char_val
                  0x005ba8                  sio_fp_data
                  0x005c0c                  sio_fp_checksum
                  0x005c58                  serial_output
                  0x005c98                  GO_serial_output_imu_data_K
                  0x005e70                  GO_serial_output_gps_data_G
                  0x005f52                  GO_serial_output_dsnav_data_b
                  0x00617c                  GO_serial_output_time_data_T
                  0x0061fe                  GO_serial_output_header
                  0x006224                  GO_serial_output_bin
                  0x006278                  GO_I2C_output_yaw
                  0x0062cc                  udb_serial_callback_get_byte_to_send
                  0x0062f4                  serial_output_8hz
 .text            0x0062fa        0x5d6 build/ICD3/production/_ext/1077471063/mathlibNAV.o
                  0x0062fa                  sine
                  0x006356                  arcsine
                  0x0063f6                  cosine
                  0x006404                  rotate
                  0x00646e                  rect_to_polar
                  0x006522                  rect_to_polar16
                  0x0065fc                  sqrt_int
                  0x006666                  sqrt_long
                  0x006708                  vector2_mag
                  0x006728                  vector3_mag
                  0x006754                  vector2_normalize
                  0x0067b6                  vector3_normalize
                  0x006840                  long_scale
 .text            0x0068d0        0x580 build/ICD3/production/_ext/1077454706/I2C2_udb4.o
                  0x0068d0                  I2C2_init
                  0x006970                  I2C2_reset
                  0x006998                  I2C2_trigger_service
                  0x0069a4                  serviceI2C2
                  0x0069be                  _MI2C2Interrupt
                  0x0069e8                  I2C2_CheckAvailable
                  0x006a1e                  I2C2_Normal
                  0x006a38                  I2C2_serve_queue
                  0x006b12                  I2C2_Write
                  0x006bc6                  I2C2_Read
                  0x006c7a                  I2C2_checkACK
                  0x006cb2                  I2C2_startWrite
                  0x006cc2                  I2C2_writeCommand
                  0x006cd8                  I2C2_writeCommandData
                  0x006d26                  I2C2_writeData
                  0x006d66                  I2C2_writeStop
                  0x006d72                  I2C2_doneWrite
                  0x006d8c                  I2C2_readStart
                  0x006d9c                  I2C2_readCommand
                  0x006db0                  I2C2_recen
                  0x006dcc                  I2C2_rerecen
                  0x006dd8                  I2C2_recstore
                  0x006e06                  I2C2_stopRead
                  0x006e12                  I2C2_idle
                  0x006e18                  I2C2_doneRead
                  0x006e32                  I2C2_Failed
 .text            0x006e50        0x404 build/ICD3/production/_ext/1472/navigate.o
                  0x006e50                  setup_origin
                  0x006e98                  dcm_callback_gps_location_updated
                  0x006eb2                  set_goal
                  0x006f06                  update_goal_alt
                  0x006f12                  process_flightplan
                  0x006f34                  compute_bearing_to_goal
                  0x007164                  wind_gain_adjustment
                  0x00716c                  determine_navigation_deflection
 .text            0x007254        0x3d2 build/ICD3/production/_ext/1472/flightplan-waypoints.o
                  0x007254                  wp_to_relative
                  0x0072de                  init_flightplan
                  0x00733c                  use_fixed_origin
                  0x007344                  get_fixed_origin
                  0x0073a6                  next_waypoint
                  0x0074b2                  run_flightplan
                  0x0075c2                  flightplan_live_begin
                  0x0075ce                  flightplan_live_received_byte
                  0x00760a                  flightplan_live_commit
 .text            0x007626        0x388 build/ICD3/production/_ext/1077454706/radioIn_udb4.o
                  0x007626                  udb_init_capture
                  0x007870                  set_pwIn
                  0x00788e                  _IC1Interrupt
                  0x0078b2                  _IC2Interrupt
                  0x0078d6                  _IC3Interrupt
                  0x0078fa                  _IC4Interrupt
                  0x00791e                  _IC5Interrupt
                  0x007942                  _IC6Interrupt
                  0x007966                  _IC7Interrupt
                  0x00798a                  _IC8Interrupt
 .text            0x0079ae        0x388 build/ICD3/production/_ext/1472/altitudeCntrl.o
                  0x0079ae                  excess_energy_height
                  0x0079b6                  altitudeCntrl
                  0x0079d0                  set_throttle_control
                  0x007a26                  setTargetAltitude
                  0x007a32                  normalAltitudeCntrl
                  0x007c96                  manualThrottle
                  0x007cde                  hoverAltitudeCntrl

.dinit            0x007d36        0x384
 .dinit           0x007d36        0x384 data_init

.text             0x0080ba       0x26a8
 .text            0x0080ba        0x30e build/ICD3/production/_ext/1472/states.o
                  0x0080ba                  init_states
                  0x0080d8                  udb_background_callback_periodic
                  0x00810c                  ent_calibrateS
                  0x00813e                  ent_acquiringS
                  0x00817c                  ent_manualS
                  0x0081aa                  ent_stabilizedS
                  0x0081d8                  ent_waypointS
                  0x00820c                  ent_returnS
                  0x008240                  udb_callback_radio_did_turn_off
                  0x008254                  startS
                  0x00825c                  calibrateS
                  0x008270                  acquiringS
                  0x0082dc                  manualS
                  0x008320                  stabilizedS
                  0x008360                  waypointS
                  0x00838a                  returnS
 .text            0x0083c8        0x2b2 build/ICD3/production/_ext/1077471063/gpsParseCommon.o
                  0x0083c8                  gpsoutbin
                  0x0083e6                  gpsoutline
                  0x0083fe                  udb_gps_callback_get_byte_to_send
                  0x00842a                  udb_gps_callback_received_byte
                  0x008438                  udb_background_callback_triggered
 .text            0x00867a        0x2aa build/ICD3/production/_ext/1077454706/analog2digital_udb4.o
                  0x00867a                  udb_init_gyros
                  0x0086b0                  udb_init_accelerometer
                  0x0086c0                  udb_init_ADC
                  0x00879e                  _DMA0Interrupt
 .text            0x008924        0x290 build/ICD3/production/_ext/1077454706/magneto_udb4.o
                  0x008924                  rxMagnetometer
                  0x008a38                  I2C_doneReadMagData
 .text            0x008bb4        0x28a build/ICD3/production/_ext/1077471063/deadReckoning.o
                  0x008bb4                  dead_reckon
 .text            0x008e3e        0x256 build/ICD3/production/_ext/1077454706/serialIO_udb4.o
                  0x008e3e                  udb_init_GPS
                  0x008e9e                  udb_gps_set_rate
                  0x008ec0                  udb_gps_check_rate
                  0x008eea                  udb_gps_start_sending_data
                  0x008ef2                  _U1TXInterrupt
                  0x008f2c                  _U1RXInterrupt
                  0x008f68                  udb_init_USART
                  0x008fca                  udb_serial_set_rate
                  0x008fec                  udb_serial_check_rate
                  0x009016                  udb_serial_start_sending_data
                  0x00901e                  _U2TXInterrupt
                  0x009058                  _U2RXInterrupt
 .text            0x009094        0x24c build/ICD3/production/_ext/1077454706/libUDB.o
                  0x009094                  udb_init
                  0x009102                  udb_run
                  0x009108                  udb_init_leds
                  0x009262                  udb_a2d_record_offsets
                  0x009284                  udb_servo_record_trims
                  0x0092ac                  udb_servo_pulsesat
                  0x0092da                  calculate_analog_sensor_values
 .text            0x0092e0        0x22e build/ICD3/production/_ext/1077471063/estWind.o
                  0x0092e0                  estimateWind
 .text            0x00950e        0x206 build/ICD3/production/_ext/1077471063/gpsParseSTD.o
                  0x00950e                  gps_nav_valid
                  0x00951e                  gps_startup_sequence
                  0x009564                  msg_B3
                  0x009578                  msg_A0
                  0x009596                  msg_A2
                  0x0095a6                  msg_PL1
                  0x0095bc                  msg_PL2
                  0x0095f6                  msg_MSG41
                  0x00963e                  msg_MSGU
                  0x009666                  msg_B0
                  0x009696                  commit_gps_data
 .text            0x009714        0x1f8 build/ICD3/production/_ext/1077454706/servoOut.o
                  0x009714                  scale_pwm_out
                  0x00973a                  udb_init_pwm
                  0x00980c                  udb_set_action_state
                  0x009828                  start_pwm_outputs
                  0x00983e                  _T4Interrupt
 .text            0x00990c        0x1cc build/ICD3/production/_ext/1472/servoMix.o
                  0x00990c                  servoMix
                  0x009a38                  cameraServoMix
 .text            0x009ad8        0x1b6 build/ICD3/production/_ext/1077454706/background.o
                  0x009ad8                  udb_init_clock
                  0x009b4a                  _T1Interrupt
                  0x009bee                  udb_background_trigger
                  0x009bf6                  _T7Interrupt
                  0x009c20                  udb_cpu_load
                  0x009c32                  _T5Interrupt
                  0x009c50                  _T6Interrupt
 .text            0x009c8e        0x182 build/ICD3/production/_ext/1472/pitchCntrl.o
                  0x009c8e                  pitchCntrl
                  0x009caa                  normalPitchCntrl
                  0x009d64                  hoverPitchCntrl
 .text            0x009e10        0x17c build/ICD3/production/_ext/1472/behavior.o
                  0x009e10                  init_behavior
                  0x009e22                  setBehavior
                  0x009e48                  canStabilizeInverted
                  0x009e50                  canStabilizeHover
                  0x009e72                  updateBehavior
                  0x009f34                  updateTriggerAction
                  0x009f80                  triggerActionSetValue
 .text            0x009f8c        0x148 build/ICD3/production/_ext/1077471063/libDCM.o
                  0x009f8c                  dcm_init
                  0x009fa2                  dcm_run_init_step
                  0x009fdc                  udb_callback_read_sensors
                  0x009fea                  udb_servo_callback_prepare_outputs
                  0x00a022                  dcm_calibrate
                  0x00a036                  dcm_set_origin_location
                  0x00a078                  dcm_absolute_to_relative
 .text            0x00a0d4        0x11c build/ICD3/production/_ext/1472/mode_switch.o
                  0x00a0d4                  flight_mode_switch_manual
                  0x00a0e2                  flight_mode_switch_auto
                  0x00a0f0                  flight_mode_switch_home
                  0x00a0fe                  flight_mode_switch_2pos_poll
                  0x00a104                  flight_mode_switch_check_set
 .text            0x00a1f0        0x10e build/ICD3/production/_ext/1077454706/events.o
                  0x00a1f0                  register_event
                  0x00a226                  trigger_event
                  0x00a25c                  init_events
                  0x00a29c                  _C2Interrupt
 .text            0x00a2fe         0xea build/ICD3/production/_ext/1472/yawCntrl.o
                  0x00a2fe                  yawCntrl
                  0x00a318                  normalYawCntrl
                  0x00a38a                  hoverYawCntrl
 .text            0x00a3e8         0xe4 build/ICD3/production/_ext/1472/servoPrepare.o
                  0x00a3e8                  init_servoPrepare
                  0x00a452                  dcm_servo_callback_prepare_outputs
                  0x00a4b2                  manualPassthrough
 .text            0x00a4cc         0x96 build/ICD3/production/_ext/1472/rollCntrl.o
                  0x00a4cc                  rollCntrl
                  0x00a4e6                  normalRollCntrl
                  0x00a530                  hoverRollCntrl
 .text            0x00a562         0x92 build/ICD3/production/_ext/1077471063/estYawDrift.o
                  0x00a562                  udb_magnetometer_callback_data_available
                  0x00a570                  dcm_enable_yaw_drift_correction
                  0x00a592                  estYawDrift
 .text            0x00a5f4         0x90 build/ICD3/production/_ext/1472/cameraCntrl.o
                  0x00a5f4                  cam_pitchServoLimit
                  0x00a61e                  cam_yawServoLimit
                  0x00a648                  set_camera_view
                  0x00a660                  compute_camera_view
                  0x00a67e                  cameraCntrl
 .text            0x00a684         0x74 build/ICD3/production/_ext/1077454706/dsNavI2C.o
                  0x00a684                  I2C_txDsnav
                  0x00a6d0                  I2C_rxDsnav
                  0x00a6e8                  I2C_doneRxDsnavData
                  0x00a6f0                  I2C_doneTxDsnavData
 .text            0x00a6f8         0x26 build/ICD3/production/_ext/1077454706/traps_udb4_asm.o
                  0x00a6f8                  _MathError
                  0x00a6fc                  _StackError
                  0x00a700                  _AddressError
                  0x00a704                  _OscillatorFail
                  0x00a70a                  _DMACError
                  0x00a70e                  _DefaultInterrupt
 .text            0x00a71e         0x24 build/ICD3/production/_ext/1472/main.o
                  0x00a71e                  main
 .text            0x00a742         0x20 build/ICD3/production/_ext/1472/tesPoint.o
                  0x00a742                  testPoint

Cross Reference Table

Symbol                                            File
ACCAH                                             build/ICD3/production/_ext/679848855/vsub.o
                                                  build/ICD3/production/_ext/679848855/vscl.o
                                                  build/ICD3/production/_ext/679848855/vpow.o
                                                  build/ICD3/production/_ext/679848855/vneg.o
                                                  build/ICD3/production/_ext/679848855/vmul.o
                                                  build/ICD3/production/_ext/679848855/vdot.o
                                                  build/ICD3/production/_ext/679848855/vcon.o
                                                  build/ICD3/production/_ext/679848855/vadd.o
                                                  build/ICD3/production/_ext/679848855/msub.o
                                                  build/ICD3/production/_ext/679848855/mscl.o
                                                  build/ICD3/production/_ext/679848855/mmul.o
                                                  build/ICD3/production/_ext/679848855/madd.o
ACCAL                                             build/ICD3/production/_ext/679848855/vsub.o
                                                  build/ICD3/production/_ext/679848855/vscl.o
                                                  build/ICD3/production/_ext/679848855/vpow.o
                                                  build/ICD3/production/_ext/679848855/vneg.o
                                                  build/ICD3/production/_ext/679848855/vmul.o
                                                  build/ICD3/production/_ext/679848855/vdot.o
                                                  build/ICD3/production/_ext/679848855/vcon.o
                                                  build/ICD3/production/_ext/679848855/vadd.o
                                                  build/ICD3/production/_ext/679848855/msub.o
                                                  build/ICD3/production/_ext/679848855/mscl.o
                                                  build/ICD3/production/_ext/679848855/mmul.o
                                                  build/ICD3/production/_ext/679848855/madd.o
ACCAU                                             build/ICD3/production/_ext/679848855/vsub.o
                                                  build/ICD3/production/_ext/679848855/vscl.o
                                                  build/ICD3/production/_ext/679848855/vpow.o
                                                  build/ICD3/production/_ext/679848855/vneg.o
                                                  build/ICD3/production/_ext/679848855/vmul.o
                                                  build/ICD3/production/_ext/679848855/vdot.o
                                                  build/ICD3/production/_ext/679848855/vcon.o
                                                  build/ICD3/production/_ext/679848855/vadd.o
                                                  build/ICD3/production/_ext/679848855/msub.o
                                                  build/ICD3/production/_ext/679848855/mscl.o
                                                  build/ICD3/production/_ext/679848855/mmul.o
                                                  build/ICD3/production/_ext/679848855/madd.o
ACCBH                                             build/ICD3/production/_ext/679848855/vsub.o
                                                  build/ICD3/production/_ext/679848855/msub.o
ACCBL                                             build/ICD3/production/_ext/679848855/vsub.o
                                                  build/ICD3/production/_ext/679848855/msub.o
ACCBU                                             build/ICD3/production/_ext/679848855/vsub.o
                                                  build/ICD3/production/_ext/679848855/msub.o
AD1CON1bits                                       build/ICD3/production/_ext/1077454706/analog2digital_udb4.o
AD1CON2bits                                       build/ICD3/production/_ext/1077454706/analog2digital_udb4.o
AD1CON3bits                                       build/ICD3/production/_ext/1077454706/analog2digital_udb4.o
AD1CON4bits                                       build/ICD3/production/_ext/1077454706/analog2digital_udb4.o
AD1CSSH                                           build/ICD3/production/_ext/1077454706/analog2digital_udb4.o
AD1CSSHbits                                       build/ICD3/production/_ext/1077454706/analog2digital_udb4.o
AD1CSSL                                           build/ICD3/production/_ext/1077454706/analog2digital_udb4.o
AD1CSSLbits                                       build/ICD3/production/_ext/1077454706/analog2digital_udb4.o
AD1PCFGH                                          build/ICD3/production/_ext/1077454706/analog2digital_udb4.o
AD1PCFGHbits                                      build/ICD3/production/_ext/1077454706/analog2digital_udb4.o
AD1PCFGL                                          build/ICD3/production/_ext/1077454706/analog2digital_udb4.o
AD1PCFGLbits                                      build/ICD3/production/_ext/1077454706/analog2digital_udb4.o
ADC1BUF0                                          build/ICD3/production/_ext/1077454706/analog2digital_udb4.o
BufferA                                           build/ICD3/production/_ext/1077454706/analog2digital_udb4.o
BufferB                                           build/ICD3/production/_ext/1077454706/analog2digital_udb4.o
CLKDIVbits                                        build/ICD3/production/_ext/1077454706/libUDB.o
CORCON                                            /Applications/microchip/xc16/v1.11/bin/bin/../../lib/liblega-pic30-coff.a(crt0_standard.o)
                                                  build/ICD3/production/_ext/1077454706/I2C2_udb4.o
                                                  build/ICD3/production/_ext/1077454706/events.o
                                                  build/ICD3/production/_ext/1077454706/serialIO_udb4.o
                                                  build/ICD3/production/_ext/1077454706/radioIn_udb4.o
                                                  build/ICD3/production/_ext/1077454706/analog2digital_udb4.o
                                                  build/ICD3/production/_ext/1077454706/libUDB.o
                                                  build/ICD3/production/_ext/1077454706/background.o
CORCON                                            build/ICD3/production/_ext/1077454706/I2C2_udb4.o
                                                  build/ICD3/production/_ext/1077454706/events.o
                                                  build/ICD3/production/_ext/1077454706/serialIO_udb4.o
                                                  build/ICD3/production/_ext/1077454706/radioIn_udb4.o
                                                  build/ICD3/production/_ext/1077454706/analog2digital_udb4.o
                                                  build/ICD3/production/_ext/1077454706/background.o
CommWd                                            build/ICD3/production/_ext/1472/telemetry.o
DCOUNT                                            build/ICD3/production/_ext/679848855/vsub.o
                                                  build/ICD3/production/_ext/679848855/vscl.o
                                                  build/ICD3/production/_ext/679848855/vpow.o
                                                  build/ICD3/production/_ext/679848855/vneg.o
                                                  build/ICD3/production/_ext/679848855/vmul.o
                                                  build/ICD3/production/_ext/679848855/vdot.o
                                                  build/ICD3/production/_ext/679848855/vcor.o
                                                  build/ICD3/production/_ext/679848855/vcon.o
                                                  build/ICD3/production/_ext/679848855/vadd.o
                                                  build/ICD3/production/_ext/679848855/mtrp.o
                                                  build/ICD3/production/_ext/679848855/msub.o
                                                  build/ICD3/production/_ext/679848855/mscl.o
                                                  build/ICD3/production/_ext/679848855/mmul.o
                                                  build/ICD3/production/_ext/679848855/madd.o
DMA0CNT                                           build/ICD3/production/_ext/1077454706/analog2digital_udb4.o
DMA0CONbits                                       build/ICD3/production/_ext/1077454706/analog2digital_udb4.o
DMA0PAD                                           build/ICD3/production/_ext/1077454706/analog2digital_udb4.o
DMA0REQ                                           build/ICD3/production/_ext/1077454706/analog2digital_udb4.o
DMA0STA                                           build/ICD3/production/_ext/1077454706/analog2digital_udb4.o
DMA0STB                                           build/ICD3/production/_ext/1077454706/analog2digital_udb4.o
DOENDH                                            build/ICD3/production/_ext/679848855/vsub.o
                                                  build/ICD3/production/_ext/679848855/vscl.o
                                                  build/ICD3/production/_ext/679848855/vpow.o
                                                  build/ICD3/production/_ext/679848855/vneg.o
                                                  build/ICD3/production/_ext/679848855/vmul.o
                                                  build/ICD3/production/_ext/679848855/vdot.o
                                                  build/ICD3/production/_ext/679848855/vcor.o
                                                  build/ICD3/production/_ext/679848855/vcon.o
                                                  build/ICD3/production/_ext/679848855/vadd.o
                                                  build/ICD3/production/_ext/679848855/mtrp.o
                                                  build/ICD3/production/_ext/679848855/msub.o
                                                  build/ICD3/production/_ext/679848855/mscl.o
                                                  build/ICD3/production/_ext/679848855/mmul.o
                                                  build/ICD3/production/_ext/679848855/madd.o
DOENDL                                            build/ICD3/production/_ext/679848855/vsub.o
                                                  build/ICD3/production/_ext/679848855/vscl.o
                                                  build/ICD3/production/_ext/679848855/vpow.o
                                                  build/ICD3/production/_ext/679848855/vneg.o
                                                  build/ICD3/production/_ext/679848855/vmul.o
                                                  build/ICD3/production/_ext/679848855/vdot.o
                                                  build/ICD3/production/_ext/679848855/vcor.o
                                                  build/ICD3/production/_ext/679848855/vcon.o
                                                  build/ICD3/production/_ext/679848855/vadd.o
                                                  build/ICD3/production/_ext/679848855/mtrp.o
                                                  build/ICD3/production/_ext/679848855/msub.o
                                                  build/ICD3/production/_ext/679848855/mscl.o
                                                  build/ICD3/production/_ext/679848855/mmul.o
                                                  build/ICD3/production/_ext/679848855/madd.o
DOSTARTH                                          build/ICD3/production/_ext/679848855/vsub.o
                                                  build/ICD3/production/_ext/679848855/vscl.o
                                                  build/ICD3/production/_ext/679848855/vpow.o
                                                  build/ICD3/production/_ext/679848855/vneg.o
                                                  build/ICD3/production/_ext/679848855/vmul.o
                                                  build/ICD3/production/_ext/679848855/vdot.o
                                                  build/ICD3/production/_ext/679848855/vcor.o
                                                  build/ICD3/production/_ext/679848855/vcon.o
                                                  build/ICD3/production/_ext/679848855/vadd.o
                                                  build/ICD3/production/_ext/679848855/mtrp.o
                                                  build/ICD3/production/_ext/679848855/msub.o
                                                  build/ICD3/production/_ext/679848855/mscl.o
                                                  build/ICD3/production/_ext/679848855/mmul.o
                                                  build/ICD3/production/_ext/679848855/madd.o
DOSTARTL                                          build/ICD3/production/_ext/679848855/vsub.o
                                                  build/ICD3/production/_ext/679848855/vscl.o
                                                  build/ICD3/production/_ext/679848855/vpow.o
                                                  build/ICD3/production/_ext/679848855/vneg.o
                                                  build/ICD3/production/_ext/679848855/vmul.o
                                                  build/ICD3/production/_ext/679848855/vdot.o
                                                  build/ICD3/production/_ext/679848855/vcor.o
                                                  build/ICD3/production/_ext/679848855/vcon.o
                                                  build/ICD3/production/_ext/679848855/vadd.o
                                                  build/ICD3/production/_ext/679848855/mtrp.o
                                                  build/ICD3/production/_ext/679848855/msub.o
                                                  build/ICD3/production/_ext/679848855/mscl.o
                                                  build/ICD3/production/_ext/679848855/mmul.o
                                                  build/ICD3/production/_ext/679848855/madd.o
DmaBuffer                                         build/ICD3/production/_ext/1077454706/analog2digital_udb4.o
DsNavReadIndex                                    build/ICD3/production/_ext/1077454706/dsNavI2C.o
DsNavWriteIndex                                   build/ICD3/production/_ext/1077454706/dsNavI2C.o
GO_CheckSum                                       build/ICD3/production/_ext/1472/telemetry.o
GO_I2C_output_yaw                                 build/ICD3/production/_ext/1472/telemetry.o
                                                  build/ICD3/production/_ext/1472/servoPrepare.o
GO_UartRxError                                    build/ICD3/production/_ext/1472/telemetry.o
GO_cmd_parser                                     build/ICD3/production/_ext/1472/telemetry.o
GO_serial_input_nav_data_S                        build/ICD3/production/_ext/1472/telemetry.o
GO_serial_output_bin                              build/ICD3/production/_ext/1472/telemetry.o
GO_serial_output_dsnav_data_b                     build/ICD3/production/_ext/1472/telemetry.o
GO_serial_output_gps_data_G                       build/ICD3/production/_ext/1472/telemetry.o
GO_serial_output_header                           build/ICD3/production/_ext/1472/telemetry.o
GO_serial_output_imu_data_K                       build/ICD3/production/_ext/1472/telemetry.o
GO_serial_output_time_data_T                      build/ICD3/production/_ext/1472/telemetry.o
GO_sio_command                                    build/ICD3/production/_ext/1472/telemetry.o
                                                  jump_table
GO_sio_data                                       build/ICD3/production/_ext/1472/telemetry.o
                                                  jump_table
GO_sio_header                                     build/ICD3/production/_ext/1472/telemetry.o
                                                  jump_table
GO_sio_id                                         build/ICD3/production/_ext/1472/telemetry.o
                                                  jump_table
GO_sio_lenght                                     build/ICD3/production/_ext/1472/telemetry.o
                                                  jump_table
GPS_velocity_previous                             build/ICD3/production/_ext/1077471063/rmat.o
GPSlocation                                       build/ICD3/production/_ext/1077471063/gpsParseCommon.o
                                                  build/ICD3/production/_ext/1472/flightplan-waypoints.o
                                                  build/ICD3/production/_ext/1472/navigate.o
                                                  build/ICD3/production/_ext/1472/cameraCntrl.o
                                                  build/ICD3/production/_ext/1077471063/deadReckoning.o
GPSvelocity                                       build/ICD3/production/_ext/1077471063/gpsParseCommon.o
                                                  build/ICD3/production/_ext/1077471063/deadReckoning.o
                                                  build/ICD3/production/_ext/1077471063/estWind.o
Hepe_gps                                          build/ICD3/production/_ext/1077471063/gpsParseSTD.o
                                                  build/ICD3/production/_ext/1472/telemetry.o
Hepe_gps_                                         build/ICD3/production/_ext/1077471063/gpsParseSTD.o
I2C2BRG                                           build/ICD3/production/_ext/1077454706/I2C2_udb4.o
I2C2CON                                           build/ICD3/production/_ext/1077454706/I2C2_udb4.o
I2C2CONbits                                       build/ICD3/production/_ext/1077454706/I2C2_udb4.o
I2C2ERROR                                         build/ICD3/production/_ext/1077454706/I2C2_udb4.o
I2C2MAXQ                                          build/ICD3/production/_ext/1077454706/I2C2_udb4.o
I2C2MAXS                                          build/ICD3/production/_ext/1077454706/I2C2_udb4.o
I2C2RCV                                           build/ICD3/production/_ext/1077454706/I2C2_udb4.o
I2C2STAT                                          build/ICD3/production/_ext/1077454706/I2C2_udb4.o
I2C2STATbits                                      build/ICD3/production/_ext/1077454706/I2C2_udb4.o
I2C2TRN                                           build/ICD3/production/_ext/1077454706/I2C2_udb4.o
I2C2_Busy                                         build/ICD3/production/_ext/1077454706/I2C2_udb4.o
I2C2_CheckAvailable                               build/ICD3/production/_ext/1077454706/I2C2_udb4.o
I2C2_CommandByte                                  build/ICD3/production/_ext/1077454706/I2C2_udb4.o
I2C2_ERROR                                        build/ICD3/production/_ext/1077454706/I2C2_udb4.o
I2C2_Failed                                       build/ICD3/production/_ext/1077454706/I2C2_udb4.o
I2C2_Index                                        build/ICD3/production/_ext/1077454706/I2C2_udb4.o
I2C2_Normal                                       build/ICD3/production/_ext/1077454706/I2C2_udb4.o
                                                  build/ICD3/production/_ext/1077454706/magneto_udb4.o
I2C2_Read                                         build/ICD3/production/_ext/1077454706/I2C2_udb4.o
                                                  build/ICD3/production/_ext/1077454706/dsNavI2C.o
                                                  build/ICD3/production/_ext/1077454706/magneto_udb4.o
I2C2_Write                                        build/ICD3/production/_ext/1077454706/I2C2_udb4.o
                                                  build/ICD3/production/_ext/1077454706/dsNavI2C.o
                                                  build/ICD3/production/_ext/1077454706/magneto_udb4.o
I2C2_checkACK                                     build/ICD3/production/_ext/1077454706/I2C2_udb4.o
I2C2_command_data_size                            build/ICD3/production/_ext/1077454706/I2C2_udb4.o
I2C2_doneRead                                     build/ICD3/production/_ext/1077454706/I2C2_udb4.o
                                                  jump_table
I2C2_doneWrite                                    build/ICD3/production/_ext/1077454706/I2C2_udb4.o
                                                  jump_table
I2C2_idle                                         build/ICD3/production/_ext/1077454706/I2C2_udb4.o
                                                  jump_table
I2C2_init                                         build/ICD3/production/_ext/1077454706/I2C2_udb4.o
                                                  build/ICD3/production/_ext/1077454706/libUDB.o
I2C2_readCommand                                  build/ICD3/production/_ext/1077454706/I2C2_udb4.o
                                                  jump_table
I2C2_readStart                                    build/ICD3/production/_ext/1077454706/I2C2_udb4.o
                                                  jump_table
I2C2_recen                                        build/ICD3/production/_ext/1077454706/I2C2_udb4.o
                                                  jump_table
I2C2_recstore                                     build/ICD3/production/_ext/1077454706/I2C2_udb4.o
                                                  jump_table
I2C2_rerecen                                      build/ICD3/production/_ext/1077454706/I2C2_udb4.o
                                                  jump_table
I2C2_reset                                        build/ICD3/production/_ext/1077454706/I2C2_udb4.o
                                                  build/ICD3/production/_ext/1077454706/magneto_udb4.o
I2C2_rx_data_size                                 build/ICD3/production/_ext/1077454706/I2C2_udb4.o
I2C2_serve_queue                                  build/ICD3/production/_ext/1077454706/I2C2_udb4.o
I2C2_service_handle                               build/ICD3/production/_ext/1077454706/I2C2_udb4.o
I2C2_startWrite                                   build/ICD3/production/_ext/1077454706/I2C2_udb4.o
                                                  jump_table
I2C2_state                                        build/ICD3/production/_ext/1077454706/I2C2_udb4.o
I2C2_stopRead                                     build/ICD3/production/_ext/1077454706/I2C2_udb4.o
                                                  jump_table
I2C2_trigger_service                              build/ICD3/production/_ext/1077454706/I2C2_udb4.o
I2C2_tx_data_size                                 build/ICD3/production/_ext/1077454706/I2C2_udb4.o
I2C2_writeCommand                                 build/ICD3/production/_ext/1077454706/I2C2_udb4.o
                                                  jump_table
I2C2_writeCommandData                             build/ICD3/production/_ext/1077454706/I2C2_udb4.o
                                                  jump_table
I2C2_writeData                                    build/ICD3/production/_ext/1077454706/I2C2_udb4.o
                                                  jump_table
I2C2_writeStop                                    build/ICD3/production/_ext/1077454706/I2C2_udb4.o
                                                  jump_table
I2CRxBuff                                         build/ICD3/production/_ext/1077454706/dsNavI2C.o
                                                  build/ICD3/production/_ext/1472/telemetry.o
I2CTxBuff                                         build/ICD3/production/_ext/1077454706/dsNavI2C.o
                                                  build/ICD3/production/_ext/1472/telemetry.o
I2C_doneReadMagData                               build/ICD3/production/_ext/1077454706/magneto_udb4.o
                                                  jump_table
I2C_doneRxDsnavData                               build/ICD3/production/_ext/1077454706/dsNavI2C.o
                                                  jump_table
I2C_doneTxDsnavData                               build/ICD3/production/_ext/1077454706/dsNavI2C.o
                                                  jump_table
I2C_rxDsnav                                       build/ICD3/production/_ext/1077454706/dsNavI2C.o
                                                  jump_table
I2C_txDsnav                                       build/ICD3/production/_ext/1077454706/dsNavI2C.o
                                                  build/ICD3/production/_ext/1472/telemetry.o
I2interrupts                                      build/ICD3/production/_ext/1077454706/magneto_udb4.o
IC1BUF                                            build/ICD3/production/_ext/1077454706/radioIn_udb4.o
IC1CON                                            build/ICD3/production/_ext/1077454706/radioIn_udb4.o
IC1CONbits                                        build/ICD3/production/_ext/1077454706/radioIn_udb4.o
IC2BUF                                            build/ICD3/production/_ext/1077454706/radioIn_udb4.o
IC2CON                                            build/ICD3/production/_ext/1077454706/radioIn_udb4.o
IC2CONbits                                        build/ICD3/production/_ext/1077454706/radioIn_udb4.o
IC3BUF                                            build/ICD3/production/_ext/1077454706/radioIn_udb4.o
IC3CON                                            build/ICD3/production/_ext/1077454706/radioIn_udb4.o
IC3CONbits                                        build/ICD3/production/_ext/1077454706/radioIn_udb4.o
IC4BUF                                            build/ICD3/production/_ext/1077454706/radioIn_udb4.o
IC4CON                                            build/ICD3/production/_ext/1077454706/radioIn_udb4.o
IC4CONbits                                        build/ICD3/production/_ext/1077454706/radioIn_udb4.o
IC5BUF                                            build/ICD3/production/_ext/1077454706/radioIn_udb4.o
IC5CON                                            build/ICD3/production/_ext/1077454706/radioIn_udb4.o
IC5CONbits                                        build/ICD3/production/_ext/1077454706/radioIn_udb4.o
IC6BUF                                            build/ICD3/production/_ext/1077454706/radioIn_udb4.o
IC6CON                                            build/ICD3/production/_ext/1077454706/radioIn_udb4.o
IC6CONbits                                        build/ICD3/production/_ext/1077454706/radioIn_udb4.o
IC7BUF                                            build/ICD3/production/_ext/1077454706/radioIn_udb4.o
IC7CON                                            build/ICD3/production/_ext/1077454706/radioIn_udb4.o
IC7CONbits                                        build/ICD3/production/_ext/1077454706/radioIn_udb4.o
IC8BUF                                            build/ICD3/production/_ext/1077454706/radioIn_udb4.o
IC8CON                                            build/ICD3/production/_ext/1077454706/radioIn_udb4.o
IC8CONbits                                        build/ICD3/production/_ext/1077454706/radioIn_udb4.o
IEC0bits                                          build/ICD3/production/_ext/1077454706/serialIO_udb4.o
                                                  build/ICD3/production/_ext/1077454706/radioIn_udb4.o
                                                  build/ICD3/production/_ext/1077454706/analog2digital_udb4.o
                                                  build/ICD3/production/_ext/1077454706/background.o
IEC1bits                                          build/ICD3/production/_ext/1077454706/serialIO_udb4.o
                                                  build/ICD3/production/_ext/1077454706/servoOut.o
                                                  build/ICD3/production/_ext/1077454706/background.o
IEC2bits                                          build/ICD3/production/_ext/1077454706/background.o
IEC3bits                                          build/ICD3/production/_ext/1077454706/I2C2_udb4.o
                                                  build/ICD3/production/_ext/1077454706/events.o
                                                  build/ICD3/production/_ext/1077454706/background.o
IFS0bits                                          build/ICD3/production/_ext/1077454706/serialIO_udb4.o
                                                  build/ICD3/production/_ext/1077454706/radioIn_udb4.o
                                                  build/ICD3/production/_ext/1077454706/analog2digital_udb4.o
                                                  build/ICD3/production/_ext/1077454706/background.o
IFS1bits                                          build/ICD3/production/_ext/1077454706/serialIO_udb4.o
                                                  build/ICD3/production/_ext/1077454706/servoOut.o
                                                  build/ICD3/production/_ext/1077454706/radioIn_udb4.o
                                                  build/ICD3/production/_ext/1077454706/background.o
IFS2bits                                          build/ICD3/production/_ext/1077454706/radioIn_udb4.o
                                                  build/ICD3/production/_ext/1077454706/background.o
IFS3bits                                          build/ICD3/production/_ext/1077454706/I2C2_udb4.o
                                                  build/ICD3/production/_ext/1077454706/events.o
                                                  build/ICD3/production/_ext/1077454706/background.o
IMUintegralAccelerationx                          build/ICD3/production/_ext/1077471063/deadReckoning.o
IMUintegralAccelerationy                          build/ICD3/production/_ext/1077471063/deadReckoning.o
IMUintegralAccelerationz                          build/ICD3/production/_ext/1077471063/deadReckoning.o
IMUlocationx                                      build/ICD3/production/_ext/1077471063/deadReckoning.o
IMUlocationy                                      build/ICD3/production/_ext/1077471063/deadReckoning.o
IMUlocationz                                      build/ICD3/production/_ext/1077471063/deadReckoning.o
                                                  build/ICD3/production/_ext/1472/altitudeCntrl.o
                                                  build/ICD3/production/_ext/1472/flightplan-waypoints.o
IMUvelocityx                                      build/ICD3/production/_ext/1077471063/deadReckoning.o
IMUvelocityy                                      build/ICD3/production/_ext/1077471063/deadReckoning.o
IMUvelocityz                                      build/ICD3/production/_ext/1077471063/deadReckoning.o
IPC0bits                                          build/ICD3/production/_ext/1077454706/radioIn_udb4.o
                                                  build/ICD3/production/_ext/1077454706/background.o
IPC10bits                                         build/ICD3/production/_ext/1077454706/radioIn_udb4.o
IPC11bits                                         build/ICD3/production/_ext/1077454706/background.o
IPC12bits                                         build/ICD3/production/_ext/1077454706/I2C2_udb4.o
                                                  build/ICD3/production/_ext/1077454706/background.o
IPC14bits                                         build/ICD3/production/_ext/1077454706/events.o
IPC1bits                                          build/ICD3/production/_ext/1077454706/radioIn_udb4.o
                                                  build/ICD3/production/_ext/1077454706/analog2digital_udb4.o
IPC2bits                                          build/ICD3/production/_ext/1077454706/serialIO_udb4.o
IPC3bits                                          build/ICD3/production/_ext/1077454706/serialIO_udb4.o
                                                  build/ICD3/production/_ext/1077454706/analog2digital_udb4.o
IPC5bits                                          build/ICD3/production/_ext/1077454706/radioIn_udb4.o
IPC6bits                                          build/ICD3/production/_ext/1077454706/servoOut.o
IPC7bits                                          build/ICD3/production/_ext/1077454706/serialIO_udb4.o
                                                  build/ICD3/production/_ext/1077454706/background.o
IPC9bits                                          build/ICD3/production/_ext/1077454706/radioIn_udb4.o
LATAbits                                          build/ICD3/production/_ext/1472/tesPoint.o
                                                  build/ICD3/production/_ext/1077454706/I2C2_udb4.o
                                                  build/ICD3/production/_ext/1077454706/servoOut.o
                                                  build/ICD3/production/_ext/1077454706/analog2digital_udb4.o
LATBbits                                          build/ICD3/production/_ext/1077454706/analog2digital_udb4.o
LATCbits                                          build/ICD3/production/_ext/1077454706/analog2digital_udb4.o
LATDbits                                          build/ICD3/production/_ext/1077454706/servoOut.o
LATEbits                                          build/ICD3/production/_ext/1077454706/magneto_udb4.o
                                                  build/ICD3/production/_ext/1077454706/libUDB.o
                                                  build/ICD3/production/_ext/1077454706/background.o
                                                  build/ICD3/production/_ext/1077471063/gpsParseCommon.o
MatrixAdd                                         build/ICD3/production/_ext/679848855/madd.o
                                                  build/ICD3/production/_ext/1077471063/rmat.o
MatrixMultiply                                    build/ICD3/production/_ext/679848855/mmul.o
                                                  build/ICD3/production/_ext/1077471063/rmat.o
MatrixScale                                       build/ICD3/production/_ext/679848855/mscl.o
MatrixSubtract                                    build/ICD3/production/_ext/679848855/msub.o
MatrixTranspose                                   build/ICD3/production/_ext/679848855/mtrp.o
                                                  build/ICD3/production/_ext/1077471063/rmat.o
OSCCON                                            build/ICD3/production/_ext/1077454706/libUDB.o
PI_feedback                                       build/ICD3/production/_ext/1077471063/rmat.o
PLLFBDbits                                        build/ICD3/production/_ext/1077454706/libUDB.o
PR1                                               build/ICD3/production/_ext/1077454706/background.o
PR4                                               build/ICD3/production/_ext/1077454706/servoOut.o
PR5                                               build/ICD3/production/_ext/1077454706/background.o
PSVPAG                                            /Applications/microchip/xc16/v1.11/bin/bin/../../lib/liblega-pic30-coff.a(crt0_standard.o)
RCOUNT                                            build/ICD3/production/_ext/679848855/vzpad.o
                                                  build/ICD3/production/_ext/679848855/vcopy.o
RCOUNT                                            build/ICD3/production/_ext/1077454706/I2C2_udb4.o
                                                  build/ICD3/production/_ext/1077454706/events.o
                                                  build/ICD3/production/_ext/1077454706/serialIO_udb4.o
                                                  build/ICD3/production/_ext/1077454706/analog2digital_udb4.o
                                                  build/ICD3/production/_ext/1077454706/background.o
RX_serial_buffer                                  build/ICD3/production/_ext/1472/telemetry.o
RotVector2RotMat                                  build/ICD3/production/_ext/1077471063/rmat.o
RxBuffCnt                                         build/ICD3/production/_ext/1472/telemetry.o
RxBuffindx                                        build/ICD3/production/_ext/1472/telemetry.o
SPLIM                                             /Applications/microchip/xc16/v1.11/bin/bin/../../lib/liblega-pic30-coff.a(crt0_standard.o)
SR                                                /Applications/microchip/xc16/v1.11/bin/bin/../../lib/liblega-c-coff.a(xlitob.XXo)
                                                  /Applications/microchip/xc16/v1.11/bin/bin/../../lib/liblega-c-coff.a(xldtob.XXo)
                                                  /Applications/microchip/xc16/v1.11/bin/bin/../../lib/liblega-c-coff.a(xputtxt.XXo)
SR                                                /Applications/microchip/xc16/v1.11/bin/bin/../../lib/libm-coff.a(dmodrem.o)
SRbits                                            build/ICD3/production/_ext/1077454706/libUDB.o
SatIdList_gps                                     build/ICD3/production/_ext/1077471063/gpsParseSTD.o
                                                  build/ICD3/production/_ext/1472/telemetry.o
SatIdList_gps_                                    build/ICD3/production/_ext/1077471063/gpsParseSTD.o
T1CONbits                                         build/ICD3/production/_ext/1077454706/background.o
T2CONbits                                         build/ICD3/production/_ext/1077454706/radioIn_udb4.o
T4CON                                             build/ICD3/production/_ext/1077454706/servoOut.o
T4CONbits                                         build/ICD3/production/_ext/1077454706/servoOut.o
T5CONbits                                         build/ICD3/production/_ext/1077454706/I2C2_udb4.o
                                                  build/ICD3/production/_ext/1077454706/events.o
                                                  build/ICD3/production/_ext/1077454706/serialIO_udb4.o
                                                  build/ICD3/production/_ext/1077454706/servoOut.o
                                                  build/ICD3/production/_ext/1077454706/radioIn_udb4.o
                                                  build/ICD3/production/_ext/1077454706/analog2digital_udb4.o
                                                  build/ICD3/production/_ext/1077454706/libUDB.o
                                                  build/ICD3/production/_ext/1077454706/background.o
TBLPAG                                            /Applications/microchip/xc16/v1.11/bin/bin/../../lib/liblega-pic30-coff.a(data_init_standard.o)
TIMECONV_DetermineUTCOffset                       build/ICD3/production/_ext/656130150/time_conversion.o
TIMECONV_GetDayOfWeekFromJulianDate               build/ICD3/production/_ext/656130150/time_conversion.o
TIMECONV_GetDayOfYear                             build/ICD3/production/_ext/656130150/time_conversion.o
TIMECONV_GetGPSTimeFromJulianDate                 build/ICD3/production/_ext/656130150/time_conversion.o
TIMECONV_GetGPSTimeFromRinexTime                  build/ICD3/production/_ext/656130150/time_conversion.o
TIMECONV_GetGPSTimeFromUTCTime                    build/ICD3/production/_ext/656130150/time_conversion.o
TIMECONV_GetGPSTimeFromYearAndDayOfYear           build/ICD3/production/_ext/656130150/time_conversion.o
TIMECONV_GetJulianDateFromGPSTime                 build/ICD3/production/_ext/656130150/time_conversion.o
TIMECONV_GetJulianDateFromUTCTime                 build/ICD3/production/_ext/656130150/time_conversion.o
TIMECONV_GetNumberOfDaysInMonth                   build/ICD3/production/_ext/656130150/time_conversion.o
TIMECONV_GetUTCTimeFromGPSTime                    build/ICD3/production/_ext/656130150/time_conversion.o
TIMECONV_GetUTCTimeFromGPSfix                     build/ICD3/production/_ext/656130150/time_conversion.o
TIMECONV_GetUTCTimeFromJulianDate                 build/ICD3/production/_ext/656130150/time_conversion.o
TIMECONV_IsALeapYear                              build/ICD3/production/_ext/656130150/time_conversion.o
TMR1                                              build/ICD3/production/_ext/1077454706/background.o
TMR2                                              build/ICD3/production/_ext/1077454706/radioIn_udb4.o
TMR4                                              build/ICD3/production/_ext/1077454706/servoOut.o
TMR5                                              build/ICD3/production/_ext/1077454706/background.o
TRISAbits                                         build/ICD3/production/_ext/1077454706/analog2digital_udb4.o
TRISBbits                                         build/ICD3/production/_ext/1077454706/analog2digital_udb4.o
TRISCbits                                         build/ICD3/production/_ext/1077454706/analog2digital_udb4.o
TRISDbits                                         build/ICD3/production/_ext/1077454706/servoOut.o
                                                  build/ICD3/production/_ext/1077454706/radioIn_udb4.o
TRISEbits                                         build/ICD3/production/_ext/1077454706/libUDB.o
TRISF                                             build/ICD3/production/_ext/1077454706/background.o
TimeS                                             build/ICD3/production/_ext/656130150/time_conversion.o
Tmp_serial_buffer                                 build/ICD3/production/_ext/1472/telemetry.o
U1BRG                                             /Applications/microchip/xc16/v1.11/bin/bin/../../lib/liblega-pic30-coff.a(write.Lo)
                                                  build/ICD3/production/_ext/1077454706/serialIO_udb4.o
U1MODEbits                                        /Applications/microchip/xc16/v1.11/bin/bin/../../lib/liblega-pic30-coff.a(write.Lo)
                                                  build/ICD3/production/_ext/1077454706/serialIO_udb4.o
U1RXREG                                           build/ICD3/production/_ext/1077454706/serialIO_udb4.o
U1STAbits                                         /Applications/microchip/xc16/v1.11/bin/bin/../../lib/liblega-pic30-coff.a(write.Lo)
                                                  build/ICD3/production/_ext/1077454706/serialIO_udb4.o
U1TXREG                                           /Applications/microchip/xc16/v1.11/bin/bin/../../lib/liblega-pic30-coff.a(write.Lo)
                                                  build/ICD3/production/_ext/1077454706/serialIO_udb4.o
U2BRG                                             /Applications/microchip/xc16/v1.11/bin/bin/../../lib/liblega-pic30-coff.a(write.Lo)
                                                  build/ICD3/production/_ext/1077454706/serialIO_udb4.o
U2MODEbits                                        /Applications/microchip/xc16/v1.11/bin/bin/../../lib/liblega-pic30-coff.a(write.Lo)
                                                  build/ICD3/production/_ext/1077454706/serialIO_udb4.o
U2RXREG                                           build/ICD3/production/_ext/1077454706/serialIO_udb4.o
U2STAbits                                         /Applications/microchip/xc16/v1.11/bin/bin/../../lib/liblega-pic30-coff.a(write.Lo)
                                                  build/ICD3/production/_ext/1077454706/serialIO_udb4.o
U2TXREG                                           /Applications/microchip/xc16/v1.11/bin/bin/../../lib/liblega-pic30-coff.a(write.Lo)
                                                  build/ICD3/production/_ext/1077454706/serialIO_udb4.o
UtcDay_gps                                        build/ICD3/production/_ext/1077471063/gpsParseSTD.o
                                                  build/ICD3/production/_ext/1472/telemetry.o
UtcDay_gps_                                       build/ICD3/production/_ext/1077471063/gpsParseSTD.o
UtcHour_gps                                       build/ICD3/production/_ext/1077471063/gpsParseSTD.o
                                                  build/ICD3/production/_ext/1472/telemetry.o
UtcHour_gps_                                      build/ICD3/production/_ext/1077471063/gpsParseSTD.o
UtcMinute_gps                                     build/ICD3/production/_ext/1077471063/gpsParseSTD.o
                                                  build/ICD3/production/_ext/1472/telemetry.o
UtcMinute_gps_                                    build/ICD3/production/_ext/1077471063/gpsParseSTD.o
UtcMonth_gps                                      build/ICD3/production/_ext/1077471063/gpsParseSTD.o
                                                  build/ICD3/production/_ext/1472/telemetry.o
UtcMonth_gps_                                     build/ICD3/production/_ext/1077471063/gpsParseSTD.o
UtcSeconds_gps                                    build/ICD3/production/_ext/1077471063/gpsParseSTD.o
                                                  build/ICD3/production/_ext/1472/telemetry.o
UtcSeconds_gps_                                   build/ICD3/production/_ext/1077471063/gpsParseSTD.o
UtcYear_gps                                       build/ICD3/production/_ext/1077471063/gpsParseSTD.o
                                                  build/ICD3/production/_ext/1472/telemetry.o
UtcYear_gps_                                      build/ICD3/production/_ext/1077471063/gpsParseSTD.o
VectorAdd                                         build/ICD3/production/_ext/679848855/vadd.o
                                                  build/ICD3/production/_ext/1077471063/rmat.o
VectorConvolve                                    build/ICD3/production/_ext/679848855/vcon.o
                                                  build/ICD3/production/_ext/679848855/vcor.o
VectorCopy                                        build/ICD3/production/_ext/679848855/vcopy.o
                                                  build/ICD3/production/_ext/679848855/vzpad.o
                                                  build/ICD3/production/_ext/1077471063/rmat.o
VectorCorrelate                                   build/ICD3/production/_ext/679848855/vcor.o
VectorCross                                       build/ICD3/production/_ext/1077471063/rmat.o
VectorDotProduct                                  build/ICD3/production/_ext/679848855/vdot.o
                                                  build/ICD3/production/_ext/1077471063/rmat.o
VectorMax                                         build/ICD3/production/_ext/679848855/vmax.o
VectorMin                                         build/ICD3/production/_ext/679848855/vmin.o
VectorMultiply                                    build/ICD3/production/_ext/679848855/vmul.o
                                                  build/ICD3/production/_ext/1077471063/rmat.o
VectorNegate                                      build/ICD3/production/_ext/679848855/vneg.o
VectorPower                                       build/ICD3/production/_ext/679848855/vpow.o
                                                  build/ICD3/production/_ext/1077471063/rmat.o
VectorScale                                       build/ICD3/production/_ext/679848855/vscl.o
                                                  build/ICD3/production/_ext/1077471063/rmat.o
VectorSubtract                                    build/ICD3/production/_ext/679848855/vsub.o
                                                  build/ICD3/production/_ext/1077471063/rmat.o
VectorZeroPad                                     build/ICD3/production/_ext/679848855/vzpad.o
WREG15                                            build/ICD3/production/_ext/1077454706/servoOut.o
                                                  build/ICD3/production/_ext/1077454706/analog2digital_udb4.o
_AddressError                                     build/ICD3/production/_ext/1077454706/traps_udb4_asm.o
_Aldata                                           /Applications/microchip/xc16/v1.11/bin/bin/../../lib/liblega-c-coff.a(malloc.XXo)
                                                  /Applications/microchip/xc16/v1.11/bin/bin/../../lib/liblega-c-coff.a(free.XXo)
_Atcount                                          /Applications/microchip/xc16/v1.11/bin/bin/../../lib/liblega-c-coff.a(xatexit.XXo)
_Atexit                                           /Applications/microchip/xc16/v1.11/bin/bin/../../lib/liblega-c-coff.a(xatexit.XXo)
                                                  /Applications/microchip/xc16/v1.11/bin/bin/../../lib/liblega-c-coff.a(fclose.XXo)
_Atfuns                                           /Applications/microchip/xc16/v1.11/bin/bin/../../lib/liblega-c-coff.a(xatexit.XXo)
_C2Interrupt                                      build/ICD3/production/_ext/1077454706/events.o
_Closreg                                          /Applications/microchip/xc16/v1.11/bin/bin/../../lib/liblega-c-coff.a(fclose.XXo)
                                                  /Applications/microchip/xc16/v1.11/bin/bin/../../lib/liblega-c-coff.a(xfwprep.XXo)
_DMA0Interrupt                                    build/ICD3/production/_ext/1077454706/analog2digital_udb4.o
_DMACError                                        build/ICD3/production/_ext/1077454706/traps_udb4_asm.o
_DNKfflush                                        /Applications/microchip/xc16/v1.11/bin/bin/../../lib/liblega-c-coff.a(fflush.XXo)
                                                  /Applications/microchip/xc16/v1.11/bin/bin/../../lib/liblega-c-coff.a(fclose.XXo)
                                                  /Applications/microchip/xc16/v1.11/bin/bin/../../lib/liblega-c-coff.a(xfwprep.XXo)
                                                  /Applications/microchip/xc16/v1.11/bin/bin/../../lib/liblega-c-coff.a(fwrite.XXo)
_DefaultInterrupt                                 build/ICD3/production/_ext/1077454706/traps_udb4_asm.o
_Dnorm                                            /Applications/microchip/xc16/v1.11/bin/bin/../../lib/liblega-c-coff.a(xdnorm.XXo)
                                                  /Applications/microchip/xc16/v1.11/bin/bin/../../lib/liblega-c-coff.a(xldscale.XXo)
                                                  /Applications/microchip/xc16/v1.11/bin/bin/../../lib/liblega-c-coff.a(xldunsca.XXo)
_FGS                                              build/ICD3/production/_ext/1077454706/libUDB.o
_FGS.sec                                          FGS
_FICD                                             build/ICD3/production/_ext/1077454706/libUDB.o
_FOSC                                             build/ICD3/production/_ext/1077454706/libUDB.o
_FOSCSEL                                          build/ICD3/production/_ext/1077454706/libUDB.o
_FPOR                                             build/ICD3/production/_ext/1077454706/libUDB.o
_FWDT                                             build/ICD3/production/_ext/1077454706/libUDB.o
_Files                                            /Applications/microchip/xc16/v1.11/bin/bin/../../lib/liblega-c-coff.a(xfiles.XXo)
                                                  /Applications/microchip/xc16/v1.11/bin/bin/../../lib/liblega-c-coff.a(fclose.XXo)
                                                  /Applications/microchip/xc16/v1.11/bin/bin/../../lib/liblega-c-coff.a(fflush.XXo)
_Fwprep                                           /Applications/microchip/xc16/v1.11/bin/bin/../../lib/liblega-c-coff.a(xfwprep.XXo)
                                                  /Applications/microchip/xc16/v1.11/bin/bin/../../lib/liblega-c-coff.a(fwrite.XXo)
_Genld                                            /Applications/microchip/xc16/v1.11/bin/bin/../../lib/liblega-c-coff.a(xgenld.XXo)
                                                  /Applications/microchip/xc16/v1.11/bin/bin/../../lib/liblega-c-coff.a(xldtob.XXo)
_Getmem                                           /Applications/microchip/xc16/v1.11/bin/bin/../../lib/liblega-c-coff.a(xgetmem.XXo)
                                                  /Applications/microchip/xc16/v1.11/bin/bin/../../lib/liblega-c-coff.a(malloc.XXo)
_IC1Interrupt                                     build/ICD3/production/_ext/1077454706/radioIn_udb4.o
_IC2Interrupt                                     build/ICD3/production/_ext/1077454706/radioIn_udb4.o
_IC3Interrupt                                     build/ICD3/production/_ext/1077454706/radioIn_udb4.o
_IC4Interrupt                                     build/ICD3/production/_ext/1077454706/radioIn_udb4.o
_IC5Interrupt                                     build/ICD3/production/_ext/1077454706/radioIn_udb4.o
_IC6Interrupt                                     build/ICD3/production/_ext/1077454706/radioIn_udb4.o
_IC7Interrupt                                     build/ICD3/production/_ext/1077454706/radioIn_udb4.o
_IC8Interrupt                                     build/ICD3/production/_ext/1077454706/radioIn_udb4.o
_LDscale                                          /Applications/microchip/xc16/v1.11/bin/bin/../../lib/liblega-c-coff.a(xldscale.XXo)
                                                  /Applications/microchip/xc16/v1.11/bin/bin/../../lib/liblega-c-coff.a(xldtob.XXo)
_LDunscale                                        /Applications/microchip/xc16/v1.11/bin/bin/../../lib/liblega-c-coff.a(xldunsca.XXo)
                                                  /Applications/microchip/xc16/v1.11/bin/bin/../../lib/liblega-c-coff.a(xldtob.XXo)
_Ldtob                                            /Applications/microchip/xc16/v1.11/bin/bin/../../lib/liblega-c-coff.a(xldtob.XXo)
                                                  /Applications/microchip/xc16/v1.11/bin/bin/../../lib/liblega-c-coff.a(xputfld.XXo)
_Litob                                            /Applications/microchip/xc16/v1.11/bin/bin/../../lib/liblega-c-coff.a(xlitob.XXo)
                                                  /Applications/microchip/xc16/v1.11/bin/bin/../../lib/liblega-c-coff.a(xputfld_cdnopsuxX.dXXo)
                                                  /Applications/microchip/xc16/v1.11/bin/bin/../../lib/liblega-c-coff.a(xputfld.XXo)
_MI2C2Interrupt                                   build/ICD3/production/_ext/1077454706/I2C2_udb4.o
_MIN_STACK_SIZE                                   dist/ICD3/production/lino-imu-udb4.production.cof
_MathError                                        build/ICD3/production/_ext/1077454706/traps_udb4_asm.o
_OscillatorFail                                   build/ICD3/production/_ext/1077454706/traps_udb4_asm.o
_PROGRAM_END                                      dist/ICD3/production/lino-imu-udb4.production.cof
_Printf                                           /Applications/microchip/xc16/v1.11/bin/bin/../../lib/liblega-c-coff.a(xprintf.XXo)
                                                  /Applications/microchip/xc16/v1.11/bin/bin/../../lib/liblega-c-coff.a(vsnprint.XXo)
_Putfld                                           /Applications/microchip/xc16/v1.11/bin/bin/../../lib/liblega-c-coff.a(xputfld.XXo)
                                                  /Applications/microchip/xc16/v1.11/bin/bin/../../lib/liblega-c-coff.a(xprintf.XXo)
_Puttxt                                           /Applications/microchip/xc16/v1.11/bin/bin/../../lib/liblega-c-coff.a(xputtxt.XXo)
                                                  /Applications/microchip/xc16/v1.11/bin/bin/../../lib/liblega-c-coff.a(xprintf_cdnopsuxX.dXXo)
                                                  /Applications/microchip/xc16/v1.11/bin/bin/../../lib/liblega-c-coff.a(xprintf.XXo)
_SPLIM_init                                       dist/ICD3/production/lino-imu-udb4.production.cof
                                                  /Applications/microchip/xc16/v1.11/bin/bin/../../lib/liblega-pic30-coff.a(crt0_standard.o)
_SP_init                                          dist/ICD3/production/lino-imu-udb4.production.cof
                                                  /Applications/microchip/xc16/v1.11/bin/bin/../../lib/liblega-pic30-coff.a(crt0_standard.o)
_STACKGUARD_SIZE                                  dist/ICD3/production/lino-imu-udb4.production.cof
_Size_block                                       /Applications/microchip/xc16/v1.11/bin/bin/../../lib/liblega-c-coff.a(malloc.XXo)
_StackError                                       build/ICD3/production/_ext/1077454706/traps_udb4_asm.o
_Stderr                                           /Applications/microchip/xc16/v1.11/bin/bin/../../lib/liblega-c-coff.a(xfiles.XXo)
_Stdin                                            /Applications/microchip/xc16/v1.11/bin/bin/../../lib/liblega-c-coff.a(xfiles.XXo)
_Stdout                                           /Applications/microchip/xc16/v1.11/bin/bin/../../lib/liblega-c-coff.a(xfiles.XXo)
                                                  /Applications/microchip/xc16/v1.11/bin/bin/../../lib/liblega-c-coff.a(printf_cdnopsuxX.dXXo)
_T1Interrupt                                      build/ICD3/production/_ext/1077454706/background.o
_T4Interrupt                                      build/ICD3/production/_ext/1077454706/servoOut.o
_T5Interrupt                                      build/ICD3/production/_ext/1077454706/background.o
_T6Interrupt                                      build/ICD3/production/_ext/1077454706/background.o
_T7Interrupt                                      build/ICD3/production/_ext/1077454706/background.o
_U1RXInterrupt                                    build/ICD3/production/_ext/1077454706/serialIO_udb4.o
_U1TXInterrupt                                    build/ICD3/production/_ext/1077454706/serialIO_udb4.o
_U2RXInterrupt                                    build/ICD3/production/_ext/1077454706/serialIO_udb4.o
_U2TXInterrupt                                    build/ICD3/production/_ext/1077454706/serialIO_udb4.o
_Vacopy                                           /Applications/microchip/xc16/v1.11/bin/bin/../../lib/liblega-c-coff.a(xvacopy.XXo)
                                                  /Applications/microchip/xc16/v1.11/bin/bin/../../lib/liblega-c-coff.a(xprintf_cdnopsuxX.dXXo)
                                                  /Applications/microchip/xc16/v1.11/bin/bin/../../lib/liblega-c-coff.a(xprintf.XXo)
__C30_UART                                        /Applications/microchip/xc16/v1.11/bin/bin/../../lib/liblega-pic30-coff.a(c30_uart.Lo)
                                                  /Applications/microchip/xc16/v1.11/bin/bin/../../lib/liblega-pic30-coff.a(write.Lo)
__adddf3                                          /Applications/microchip/xc16/v1.11/bin/bin/../../lib/libm-coff.a(adddf3.o)
                                                  /Applications/microchip/xc16/v1.11/bin/bin/../../lib/libm-coff.a(dmodrem.o)
                                                  /Applications/microchip/xc16/v1.11/bin/bin/../../lib/libm-coff.a(subdf3.o)
                                                  build/ICD3/production/_ext/656130150/time_conversion.o
                                                  build/ICD3/production/_ext/1472/telemetry.o
__addsf3                                          /Applications/microchip/xc16/v1.11/bin/bin/../../lib/libm-coff.a(addsf3.o)
__curbrk                                          /Applications/microchip/xc16/v1.11/bin/bin/../../lib/liblega-pic30-coff.a(brk.Lo)
                                                  /Applications/microchip/xc16/v1.11/bin/bin/../../lib/liblega-pic30-coff.a(sbrk.Lo)
__dPrintf_cdnopsuxX                               /Applications/microchip/xc16/v1.11/bin/bin/../../lib/liblega-c-coff.a(xprintf_cdnopsuxX.dXXo)
                                                  /Applications/microchip/xc16/v1.11/bin/bin/../../lib/liblega-c-coff.a(printf_cdnopsuxX.dXXo)
__dPutfld_cdnopsuxX                               /Applications/microchip/xc16/v1.11/bin/bin/../../lib/liblega-c-coff.a(xputfld_cdnopsuxX.dXXo)
                                                  /Applications/microchip/xc16/v1.11/bin/bin/../../lib/liblega-c-coff.a(xprintf_cdnopsuxX.dXXo)
__delay32                                         /Applications/microchip/xc16/v1.11/bin/bin/../../lib/liblega-pic30-coff.a(delay32.Lo)
                                                  build/ICD3/production/_ext/1077454706/libUDB.o
__divdf3                                          /Applications/microchip/xc16/v1.11/bin/bin/../../lib/libm-coff.a(divdf3.o)
                                                  /Applications/microchip/xc16/v1.11/bin/bin/../../lib/liblega-c-coff.a(xldtob.XXo)
                                                  build/ICD3/production/_ext/656130150/time_conversion.o
__divdi3                                          /Applications/microchip/xc16/v1.11/bin/bin/../../lib/libm-coff.a(divmoddi3.o)
                                                  /Applications/microchip/xc16/v1.11/bin/bin/../../lib/liblega-c-coff.a(xlitob.XXo)
__divsi3                                          /Applications/microchip/xc16/v1.11/bin/bin/../../lib/libm-coff.a(divsi3.o)
                                                  /Applications/microchip/xc16/v1.11/bin/bin/../../lib/liblega-c-coff.a(ldiv.XXo)
                                                  /Applications/microchip/xc16/v1.11/bin/bin/../../lib/liblega-c-coff.a(xlitob.XXo)
                                                  /Applications/microchip/xc16/v1.11/bin/bin/../../lib/liblega-c-coff.a(xldtob.XXo)
                                                  build/ICD3/production/_ext/656130150/time_conversion.o
                                                  build/ICD3/production/_ext/1472/navigate.o
                                                  build/ICD3/production/_ext/1077471063/libDCM.o
                                                  build/ICD3/production/_ext/1077471063/gpsParseCommon.o
__eqdf2                                           /Applications/microchip/xc16/v1.11/bin/bin/../../lib/libm-coff.a(deqltle.o)
__extendsfdf2                                     /Applications/microchip/xc16/v1.11/bin/bin/../../lib/libm-coff.a(extendsfdf.o)
                                                  /Applications/microchip/xc16/v1.11/bin/bin/../../lib/liblega-c-coff.a(xputfld.XXo)
                                                  build/ICD3/production/_ext/656130150/time_conversion.o
                                                  build/ICD3/production/_ext/1472/telemetry.o
__fixdfsi                                         /Applications/microchip/xc16/v1.11/bin/bin/../../lib/libm-coff.a(fixdfsi.o)
                                                  /Applications/microchip/xc16/v1.11/bin/bin/../../lib/liblega-c-coff.a(xldtob.XXo)
                                                  build/ICD3/production/_ext/656130150/time_conversion.o
                                                  build/ICD3/production/_ext/1472/telemetry.o
                                                  build/ICD3/production/_ext/1472/yawCntrl.o
__fixsfsi                                         /Applications/microchip/xc16/v1.11/bin/bin/../../lib/libm-coff.a(fixsfsi.o)
                                                  build/ICD3/production/_ext/1472/flightplan-waypoints.o
                                                  build/ICD3/production/_ext/1472/telemetry.o
__fixunsdfsi                                      /Applications/microchip/xc16/v1.11/bin/bin/../../lib/libm-coff.a(fixunsdfsi.o)
                                                  build/ICD3/production/_ext/656130150/time_conversion.o
__floatdidf                                       /Applications/microchip/xc16/v1.11/bin/bin/../../lib/libm-coff.a(floatdidf.o)
                                                  /Applications/microchip/xc16/v1.11/bin/bin/../../lib/libm-coff.a(floatsidf.o)
__floatdisf                                       /Applications/microchip/xc16/v1.11/bin/bin/../../lib/libm-coff.a(floatdisf.o)
                                                  /Applications/microchip/xc16/v1.11/bin/bin/../../lib/libm-coff.a(floatsisf.o)
__floatsidf                                       /Applications/microchip/xc16/v1.11/bin/bin/../../lib/libm-coff.a(floatsidf.o)
                                                  /Applications/microchip/xc16/v1.11/bin/bin/../../lib/liblega-c-coff.a(xldtob.XXo)
                                                  build/ICD3/production/_ext/656130150/time_conversion.o
                                                  build/ICD3/production/_ext/1472/telemetry.o
                                                  build/ICD3/production/_ext/1472/yawCntrl.o
__floatsisf                                       /Applications/microchip/xc16/v1.11/bin/bin/../../lib/libm-coff.a(floatsisf.o)
                                                  build/ICD3/production/_ext/1472/telemetry.o
__floatundidf                                     /Applications/microchip/xc16/v1.11/bin/bin/../../lib/libm-coff.a(floatundidf.o)
                                                  /Applications/microchip/xc16/v1.11/bin/bin/../../lib/libm-coff.a(floatdidf.o)
                                                  /Applications/microchip/xc16/v1.11/bin/bin/../../lib/libm-coff.a(floatunsidf.o)
__floatundisf                                     /Applications/microchip/xc16/v1.11/bin/bin/../../lib/libm-coff.a(floatundisf.o)
                                                  /Applications/microchip/xc16/v1.11/bin/bin/../../lib/libm-coff.a(floatdisf.o)
                                                  /Applications/microchip/xc16/v1.11/bin/bin/../../lib/libm-coff.a(floatunsisf.o)
__floatunsidf                                     /Applications/microchip/xc16/v1.11/bin/bin/../../lib/libm-coff.a(floatunsidf.o)
                                                  build/ICD3/production/_ext/656130150/time_conversion.o
__floatunsisf                                     /Applications/microchip/xc16/v1.11/bin/bin/../../lib/libm-coff.a(floatunsisf.o)
                                                  build/ICD3/production/_ext/656130150/time_conversion.o
__gedf2                                           /Applications/microchip/xc16/v1.11/bin/bin/../../lib/libm-coff.a(dgtge.o)
__gesf2                                           /Applications/microchip/xc16/v1.11/bin/bin/../../lib/libm-coff.a(fgtge.o)
                                                  build/ICD3/production/_ext/656130150/time_conversion.o
__gtdf2                                           /Applications/microchip/xc16/v1.11/bin/bin/../../lib/libm-coff.a(dgtge.o)
                                                  /Applications/microchip/xc16/v1.11/bin/bin/../../lib/liblega-c-coff.a(xldtob.XXo)
                                                  build/ICD3/production/_ext/656130150/time_conversion.o
__gtsf2                                           /Applications/microchip/xc16/v1.11/bin/bin/../../lib/libm-coff.a(fgtge.o)
                                                  build/ICD3/production/_ext/656130150/time_conversion.o
__ledf2                                           /Applications/microchip/xc16/v1.11/bin/bin/../../lib/libm-coff.a(deqltle.o)
__ltdf2                                           /Applications/microchip/xc16/v1.11/bin/bin/../../lib/libm-coff.a(deqltle.o)
                                                  /Applications/microchip/xc16/v1.11/bin/bin/../../lib/liblega-c-coff.a(xldtob.XXo)
                                                  build/ICD3/production/_ext/656130150/time_conversion.o
__moddi3                                          /Applications/microchip/xc16/v1.11/bin/bin/../../lib/libm-coff.a(divmoddi3.o)
__muldf3                                          /Applications/microchip/xc16/v1.11/bin/bin/../../lib/libm-coff.a(muldf3.o)
                                                  /Applications/microchip/xc16/v1.11/bin/bin/../../lib/liblega-c-coff.a(xldtob.XXo)
                                                  build/ICD3/production/_ext/656130150/time_conversion.o
                                                  build/ICD3/production/_ext/1472/telemetry.o
                                                  build/ICD3/production/_ext/1472/yawCntrl.o
__muldi3                                          /Applications/microchip/xc16/v1.11/bin/bin/../../lib/libm-coff.a(muldi3.o)
                                                  build/ICD3/production/_ext/1077454706/libUDB.o
                                                  build/ICD3/production/_ext/1077471063/mathlibNAV.o
__mulp32eds3                                      /Applications/microchip/xc16/v1.11/bin/bin/../../lib/libm-coff.a(mulsi3.o)
__mulp32peds3                                     /Applications/microchip/xc16/v1.11/bin/bin/../../lib/libm-coff.a(mulsi3.o)
__mulsf3                                          /Applications/microchip/xc16/v1.11/bin/bin/../../lib/libm-coff.a(mulsf3.o)
                                                  build/ICD3/production/_ext/1472/flightplan-waypoints.o
__mulsi3                                          /Applications/microchip/xc16/v1.11/bin/bin/../../lib/libm-coff.a(mulsi3.o)
                                                  /Applications/microchip/xc16/v1.11/bin/bin/../../lib/liblega-c-coff.a(ldiv.XXo)
                                                  /Applications/microchip/xc16/v1.11/bin/bin/../../lib/liblega-c-coff.a(xldtob.XXo)
__subdf3                                          /Applications/microchip/xc16/v1.11/bin/bin/../../lib/libm-coff.a(subdf3.o)
                                                  /Applications/microchip/xc16/v1.11/bin/bin/../../lib/liblega-c-coff.a(xldtob.XXo)
                                                  /Applications/microchip/xc16/v1.11/bin/bin/../../lib/libm-coff.a(floor.o)
                                                  build/ICD3/production/_ext/656130150/time_conversion.o
__subsf3                                          /Applications/microchip/xc16/v1.11/bin/bin/../../lib/libm-coff.a(addsf3.o)
                                                  build/ICD3/production/_ext/656130150/time_conversion.o
__truncdfsf2                                      /Applications/microchip/xc16/v1.11/bin/bin/../../lib/libm-coff.a(truncdfsf.o)
                                                  build/ICD3/production/_ext/656130150/time_conversion.o
                                                  build/ICD3/production/_ext/1472/telemetry.o
__udivdi3                                         /Applications/microchip/xc16/v1.11/bin/bin/../../lib/libm-coff.a(divmoddi3.o)
                                                  /Applications/microchip/xc16/v1.11/bin/bin/../../lib/liblega-c-coff.a(xlitob.XXo)
                                                  build/ICD3/production/_ext/1077454706/libUDB.o
__udivmoddi3                                      /Applications/microchip/xc16/v1.11/bin/bin/../../lib/libm-coff.a(divmoddi3.o)
__udivsi3                                         /Applications/microchip/xc16/v1.11/bin/bin/../../lib/libm-coff.a(udivsi3.o)
                                                  /Applications/microchip/xc16/v1.11/bin/bin/../../lib/libm-coff.a(umodsi3.o)
                                                  /Applications/microchip/xc16/v1.11/bin/bin/../../lib/liblega-c-coff.a(xlitob.XXo)
                                                  /Applications/microchip/xc16/v1.11/bin/bin/../../lib/libm-coff.a(divsi3.o)
                                                  build/ICD3/production/_ext/1077454706/serialIO_udb4.o
__umoddi3                                         /Applications/microchip/xc16/v1.11/bin/bin/../../lib/libm-coff.a(divmoddi3.o)
                                                  /Applications/microchip/xc16/v1.11/bin/bin/../../lib/liblega-c-coff.a(xlitob.XXo)
__umodsi3                                         /Applications/microchip/xc16/v1.11/bin/bin/../../lib/libm-coff.a(umodsi3.o)
                                                  /Applications/microchip/xc16/v1.11/bin/bin/../../lib/liblega-c-coff.a(xlitob.XXo)
__umuldi3                                         /Applications/microchip/xc16/v1.11/bin/bin/../../lib/libm-coff.a(umuldi3.o)
                                                  /Applications/microchip/xc16/v1.11/bin/bin/../../lib/libm-coff.a(muldi3.o)
_bootconst_psvpage                                dist/ICD3/production/lino-imu-udb4.production.cof
_const_length                                     dist/ICD3/production/lino-imu-udb4.production.cof
                                                  /Applications/microchip/xc16/v1.11/bin/bin/../../lib/liblega-pic30-coff.a(crt0_standard.o)
_const_psvpage                                    dist/ICD3/production/lino-imu-udb4.production.cof
                                                  /Applications/microchip/xc16/v1.11/bin/bin/../../lib/liblega-pic30-coff.a(crt0_standard.o)
_cpu_timer                                        build/ICD3/production/_ext/1077454706/background.o
_dPropagateNaN                                    /Applications/microchip/xc16/v1.11/bin/bin/../../lib/libm-coff.a(dpropagateNaN.o)
                                                  /Applications/microchip/xc16/v1.11/bin/bin/../../lib/libm-coff.a(dunpack2.o)
_data_init                                        /Applications/microchip/xc16/v1.11/bin/bin/../../lib/liblega-pic30-coff.a(data_init_standard.o)
_data_init_standard                               /Applications/microchip/xc16/v1.11/bin/bin/../../lib/liblega-pic30-coff.a(data_init_standard.o)
                                                  /Applications/microchip/xc16/v1.11/bin/bin/../../lib/liblega-pic30-coff.a(crt0_standard.o)
_dchop                                            /Applications/microchip/xc16/v1.11/bin/bin/../../lib/libm-coff.a(dchop.o)
                                                  /Applications/microchip/xc16/v1.11/bin/bin/../../lib/libm-coff.a(floor.o)
_dcompare                                         /Applications/microchip/xc16/v1.11/bin/bin/../../lib/libm-coff.a(dcompare.o)
                                                  /Applications/microchip/xc16/v1.11/bin/bin/../../lib/libm-coff.a(deqltle.o)
                                                  /Applications/microchip/xc16/v1.11/bin/bin/../../lib/libm-coff.a(dgtge.o)
_dinit_tbloffset                                  dist/ICD3/production/lino-imu-udb4.production.cof
                                                  /Applications/microchip/xc16/v1.11/bin/bin/../../lib/liblega-pic30-coff.a(crt0_standard.o)
_dinit_tblpage                                    dist/ICD3/production/lino-imu-udb4.production.cof
                                                  /Applications/microchip/xc16/v1.11/bin/bin/../../lib/liblega-pic30-coff.a(crt0_standard.o)
_dmodrem                                          /Applications/microchip/xc16/v1.11/bin/bin/../../lib/libm-coff.a(dmodrem.o)
                                                  /Applications/microchip/xc16/v1.11/bin/bin/../../lib/libm-coff.a(fmod.o)
_dpack                                            /Applications/microchip/xc16/v1.11/bin/bin/../../lib/libm-coff.a(dpack.o)
                                                  /Applications/microchip/xc16/v1.11/bin/bin/../../lib/libm-coff.a(dmodrem.o)
                                                  /Applications/microchip/xc16/v1.11/bin/bin/../../lib/libm-coff.a(floatundidf.o)
                                                  /Applications/microchip/xc16/v1.11/bin/bin/../../lib/libm-coff.a(dchop.o)
                                                  /Applications/microchip/xc16/v1.11/bin/bin/../../lib/libm-coff.a(divdf3.o)
                                                  /Applications/microchip/xc16/v1.11/bin/bin/../../lib/libm-coff.a(adddf3.o)
                                                  /Applications/microchip/xc16/v1.11/bin/bin/../../lib/libm-coff.a(muldf3.o)
_dprintf_cdnopsuxX                                /Applications/microchip/xc16/v1.11/bin/bin/../../lib/liblega-c-coff.a(printf_cdnopsuxX.dXXo)
                                                  build/ICD3/production/_ext/656130150/time_conversion.o
_dreturnNaN                                       /Applications/microchip/xc16/v1.11/bin/bin/../../lib/libm-coff.a(dunpack2.o)
                                                  /Applications/microchip/xc16/v1.11/bin/bin/../../lib/libm-coff.a(dmodrem.o)
                                                  /Applications/microchip/xc16/v1.11/bin/bin/../../lib/libm-coff.a(divdf3.o)
                                                  /Applications/microchip/xc16/v1.11/bin/bin/../../lib/libm-coff.a(adddf3.o)
                                                  /Applications/microchip/xc16/v1.11/bin/bin/../../lib/libm-coff.a(muldf3.o)
_dtype                                            /Applications/microchip/xc16/v1.11/bin/bin/../../lib/libm-coff.a(dtype.o)
                                                  /Applications/microchip/xc16/v1.11/bin/bin/../../lib/libm-coff.a(dcompare.o)
_dunpack                                          /Applications/microchip/xc16/v1.11/bin/bin/../../lib/libm-coff.a(dunpack.o)
                                                  /Applications/microchip/xc16/v1.11/bin/bin/../../lib/libm-coff.a(dchop.o)
                                                  /Applications/microchip/xc16/v1.11/bin/bin/../../lib/libm-coff.a(dunpack2.o)
                                                  /Applications/microchip/xc16/v1.11/bin/bin/../../lib/libm-coff.a(fixunsdfsi.o)
                                                  /Applications/microchip/xc16/v1.11/bin/bin/../../lib/libm-coff.a(truncdfsf.o)
                                                  /Applications/microchip/xc16/v1.11/bin/bin/../../lib/libm-coff.a(fixdfsi.o)
_dunpack2                                         /Applications/microchip/xc16/v1.11/bin/bin/../../lib/libm-coff.a(dunpack2.o)
                                                  /Applications/microchip/xc16/v1.11/bin/bin/../../lib/libm-coff.a(dmodrem.o)
                                                  /Applications/microchip/xc16/v1.11/bin/bin/../../lib/libm-coff.a(divdf3.o)
                                                  /Applications/microchip/xc16/v1.11/bin/bin/../../lib/libm-coff.a(adddf3.o)
                                                  /Applications/microchip/xc16/v1.11/bin/bin/../../lib/libm-coff.a(muldf3.o)
_dunpack2exit                                     /Applications/microchip/xc16/v1.11/bin/bin/../../lib/libm-coff.a(dunpack2.o)
                                                  /Applications/microchip/xc16/v1.11/bin/bin/../../lib/libm-coff.a(dmodrem.o)
                                                  /Applications/microchip/xc16/v1.11/bin/bin/../../lib/libm-coff.a(fixunsdfsi.o)
                                                  /Applications/microchip/xc16/v1.11/bin/bin/../../lib/libm-coff.a(divdf3.o)
                                                  /Applications/microchip/xc16/v1.11/bin/bin/../../lib/libm-coff.a(truncdfsf.o)
                                                  /Applications/microchip/xc16/v1.11/bin/bin/../../lib/libm-coff.a(adddf3.o)
                                                  /Applications/microchip/xc16/v1.11/bin/bin/../../lib/libm-coff.a(fixdfsi.o)
                                                  /Applications/microchip/xc16/v1.11/bin/bin/../../lib/libm-coff.a(muldf3.o)
_eheap                                            dist/ICD3/production/lino-imu-udb4.production.cof
                                                  /Applications/microchip/xc16/v1.11/bin/bin/../../lib/liblega-pic30-coff.a(brk.Lo)
_fPropagateNaN                                    /Applications/microchip/xc16/v1.11/bin/bin/../../lib/libm-coff.a(futil.o)
                                                  /Applications/microchip/xc16/v1.11/bin/bin/../../lib/libm-coff.a(addsf3.o)
                                                  /Applications/microchip/xc16/v1.11/bin/bin/../../lib/libm-coff.a(mulsf3.o)
_fbopExit                                         /Applications/microchip/xc16/v1.11/bin/bin/../../lib/libm-coff.a(futil.o)
                                                  /Applications/microchip/xc16/v1.11/bin/bin/../../lib/libm-coff.a(addsf3.o)
                                                  /Applications/microchip/xc16/v1.11/bin/bin/../../lib/libm-coff.a(mulsf3.o)
_fbopReturnNaN                                    /Applications/microchip/xc16/v1.11/bin/bin/../../lib/libm-coff.a(futil.o)
                                                  /Applications/microchip/xc16/v1.11/bin/bin/../../lib/libm-coff.a(addsf3.o)
                                                  /Applications/microchip/xc16/v1.11/bin/bin/../../lib/libm-coff.a(mulsf3.o)
_fcompare                                         /Applications/microchip/xc16/v1.11/bin/bin/../../lib/libm-coff.a(fcompare.o)
                                                  /Applications/microchip/xc16/v1.11/bin/bin/../../lib/libm-coff.a(fgtge.o)
_fpack                                            /Applications/microchip/xc16/v1.11/bin/bin/../../lib/libm-coff.a(fpack.o)
                                                  /Applications/microchip/xc16/v1.11/bin/bin/../../lib/libm-coff.a(floatundisf.o)
                                                  /Applications/microchip/xc16/v1.11/bin/bin/../../lib/libm-coff.a(addsf3.o)
                                                  /Applications/microchip/xc16/v1.11/bin/bin/../../lib/libm-coff.a(mulsf3.o)
                                                  /Applications/microchip/xc16/v1.11/bin/bin/../../lib/libm-coff.a(truncdfsf.o)
_funpack                                          /Applications/microchip/xc16/v1.11/bin/bin/../../lib/libm-coff.a(funpack.o)
                                                  /Applications/microchip/xc16/v1.11/bin/bin/../../lib/libm-coff.a(funpack2.o)
                                                  /Applications/microchip/xc16/v1.11/bin/bin/../../lib/libm-coff.a(fixsfsi.o)
                                                  /Applications/microchip/xc16/v1.11/bin/bin/../../lib/libm-coff.a(extendsfdf.o)
_funpack2                                         /Applications/microchip/xc16/v1.11/bin/bin/../../lib/libm-coff.a(funpack2.o)
                                                  /Applications/microchip/xc16/v1.11/bin/bin/../../lib/libm-coff.a(fcompare.o)
                                                  /Applications/microchip/xc16/v1.11/bin/bin/../../lib/libm-coff.a(addsf3.o)
                                                  /Applications/microchip/xc16/v1.11/bin/bin/../../lib/libm-coff.a(mulsf3.o)
_has_user_init                                    /Applications/microchip/xc16/v1.11/bin/bin/../../lib/liblega-pic30-coff.a(crt0_standard.o)
_heap                                             dist/ICD3/production/lino-imu-udb4.production.cof
                                                  /Applications/microchip/xc16/v1.11/bin/bin/../../lib/liblega-pic30-coff.a(brk.Lo)
_idle_timer                                       build/ICD3/production/_ext/1077454706/background.o
_psv_init                                         /Applications/microchip/xc16/v1.11/bin/bin/../../lib/liblega-pic30-coff.a(crt0_standard.o)
_reset                                            /Applications/microchip/xc16/v1.11/bin/bin/../../lib/liblega-pic30-coff.a(crt0_standard.o)
_resetALT                                         dist/ICD3/production/lino-imu-udb4.production.cof
_resetPRI                                         /Applications/microchip/xc16/v1.11/bin/bin/../../lib/liblega-pic30-coff.a(crt0_standard.o)
_secureconst_psvpage                              dist/ICD3/production/lino-imu-udb4.production.cof
_user_init                                        /Applications/microchip/xc16/v1.11/bin/bin/../../lib/liblega-pic30-coff.a(crt0_standard.o)
accelEarth                                        build/ICD3/production/_ext/1077471063/rmat.o
                                                  build/ICD3/production/_ext/1077471063/deadReckoning.o
accelerometer_earth_integral                      build/ICD3/production/_ext/1077471063/rmat.o
accelerometer_samples                             build/ICD3/production/_ext/1077471063/rmat.o
acquiringS                                        build/ICD3/production/_ext/1472/states.o
                                                  jump_table
actual_dir                                        build/ICD3/production/_ext/1077471063/gpsParseCommon.o
                                                  build/ICD3/production/_ext/1077471063/estYawDrift.o
adj_accel                                         build/ICD3/production/_ext/1077471063/rmat.o
adjust_gyro_gain                                  build/ICD3/production/_ext/1077471063/rmat.o
aileronbgain                                      build/ICD3/production/_ext/1472/servoMix.o
air_speed_3DGPS                                   build/ICD3/production/_ext/1077471063/gpsParseCommon.o
                                                  build/ICD3/production/_ext/1077471063/rmat.o
air_speed_3DIMU                                   build/ICD3/production/_ext/1077471063/deadReckoning.o
air_speed_magnitudeXY                             build/ICD3/production/_ext/1077471063/gpsParseCommon.o
                                                  build/ICD3/production/_ext/1472/navigate.o
                                                  build/ICD3/production/_ext/1077471063/estYawDrift.o
align_rmat_to_mag                                 build/ICD3/production/_ext/1077471063/rmat.o
alt_origin                                        build/ICD3/production/_ext/1077471063/gpsParseCommon.o
                                                  build/ICD3/production/_ext/1077471063/libDCM.o
alt_sl_gps                                        build/ICD3/production/_ext/1077471063/gpsParseCommon.o
                                                  build/ICD3/production/_ext/1472/telemetry.o
                                                  build/ICD3/production/_ext/1472/navigate.o
                                                  build/ICD3/production/_ext/1077471063/gpsParseSTD.o
alt_sl_gps_                                       build/ICD3/production/_ext/1077471063/gpsParseSTD.o
altitudeCntrl                                     build/ICD3/production/_ext/1472/altitudeCntrl.o
                                                  build/ICD3/production/_ext/1472/servoPrepare.o
arcsine                                           build/ICD3/production/_ext/1077471063/mathlibNAV.o
                                                  build/ICD3/production/_ext/1472/navigate.o
bin_mode                                          build/ICD3/production/_ext/1077471063/gpsParseSTD.o
brk                                               /Applications/microchip/xc16/v1.11/bin/bin/../../lib/liblega-pic30-coff.a(brk.Lo)
                                                  /Applications/microchip/xc16/v1.11/bin/bin/../../lib/liblega-pic30-coff.a(sbrk.Lo)
calculate_analog_sensor_values                    build/ICD3/production/_ext/1077454706/libUDB.o
                                                  build/ICD3/production/_ext/1077454706/background.o
calculated_checksum                               build/ICD3/production/_ext/1077471063/gpsParseSTD.o
calculated_heading                                build/ICD3/production/_ext/1077471063/gpsParseCommon.o
                                                  build/ICD3/production/_ext/1472/navigate.o
                                                  build/ICD3/production/_ext/1077471063/estYawDrift.o
calib_timer                                       build/ICD3/production/_ext/1472/states.o
calibrateS                                        build/ICD3/production/_ext/1472/states.o
                                                  jump_table
calibrate_gyros                                   build/ICD3/production/_ext/1077471063/rmat.o
cam_pitchServoLimit                               build/ICD3/production/_ext/1472/cameraCntrl.o
                                                  build/ICD3/production/_ext/1472/servoMix.o
cam_pitch_servo_pwm_delta                         build/ICD3/production/_ext/1472/cameraCntrl.o
                                                  build/ICD3/production/_ext/1472/servoMix.o
cam_yawServoLimit                                 build/ICD3/production/_ext/1472/cameraCntrl.o
                                                  build/ICD3/production/_ext/1472/servoMix.o
cam_yaw_servo_pwm_delta                           build/ICD3/production/_ext/1472/cameraCntrl.o
                                                  build/ICD3/production/_ext/1472/servoMix.o
cameraCntrl                                       build/ICD3/production/_ext/1472/cameraCntrl.o
cameraServoMix                                    build/ICD3/production/_ext/1472/servoMix.o
                                                  build/ICD3/production/_ext/1472/servoPrepare.o
camera_view                                       build/ICD3/production/_ext/1472/cameraCntrl.o
canStabilizeHover                                 build/ICD3/production/_ext/1472/behavior.o
                                                  build/ICD3/production/_ext/1472/altitudeCntrl.o
                                                  build/ICD3/production/_ext/1472/yawCntrl.o
                                                  build/ICD3/production/_ext/1472/rollCntrl.o
                                                  build/ICD3/production/_ext/1472/pitchCntrl.o
canStabilizeInverted                              build/ICD3/production/_ext/1472/behavior.o
                                                  build/ICD3/production/_ext/1472/yawCntrl.o
                                                  build/ICD3/production/_ext/1472/rollCntrl.o
                                                  build/ICD3/production/_ext/1472/pitchCntrl.o
checksum_                                         build/ICD3/production/_ext/1077471063/gpsParseSTD.o
climb_gps                                         build/ICD3/production/_ext/1077471063/gpsParseCommon.o
                                                  build/ICD3/production/_ext/1077471063/gpsParseSTD.o
climb_gps_                                        build/ICD3/production/_ext/1077471063/gpsParseSTD.o
climb_rate_previous                               build/ICD3/production/_ext/1077471063/gpsParseCommon.o
close                                             /Applications/microchip/xc16/v1.11/bin/bin/../../lib/liblega-pic30-coff.a(close.Lo)
                                                  /Applications/microchip/xc16/v1.11/bin/bin/../../lib/liblega-c-coff.a(fclose.XXo)
cog_gps                                           build/ICD3/production/_ext/1077471063/gpsParseCommon.o
                                                  build/ICD3/production/_ext/1472/telemetry.o
                                                  build/ICD3/production/_ext/1077471063/gpsParseSTD.o
cog_gps_                                          build/ICD3/production/_ext/1077471063/gpsParseSTD.o
cog_previous                                      build/ICD3/production/_ext/1077471063/gpsParseCommon.o
commit_gps_data                                   build/ICD3/production/_ext/1077471063/gpsParseSTD.o
                                                  build/ICD3/production/_ext/1077471063/gpsParseCommon.o
compute_bearing_to_goal                           build/ICD3/production/_ext/1472/navigate.o
                                                  build/ICD3/production/_ext/1472/flightplan-waypoints.o
compute_camera_view                               build/ICD3/production/_ext/1472/cameraCntrl.o
                                                  build/ICD3/production/_ext/1472/navigate.o
cos_lat                                           build/ICD3/production/_ext/1077471063/gpsParseCommon.o
                                                  build/ICD3/production/_ext/1077471063/libDCM.o
cosine                                            build/ICD3/production/_ext/1077471063/mathlibNAV.o
                                                  build/ICD3/production/_ext/1472/navigate.o
                                                  build/ICD3/production/_ext/1077471063/libDCM.o
                                                  build/ICD3/production/_ext/1077471063/rmat.o
                                                  build/ICD3/production/_ext/1077471063/gpsParseCommon.o
                                                  build/ICD3/production/_ext/1077471063/estYawDrift.o
                                                  build/ICD3/production/_ext/1077471063/estWind.o
cpu_timer                                         build/ICD3/production/_ext/1077454706/background.o
currentTriggerActionValue                         build/ICD3/production/_ext/1472/behavior.o
currentWaypointSet                                build/ICD3/production/_ext/1472/flightplan-waypoints.o
current_orientation                               build/ICD3/production/_ext/1472/behavior.o
                                                  build/ICD3/production/_ext/1472/altitudeCntrl.o
                                                  build/ICD3/production/_ext/1472/yawCntrl.o
                                                  build/ICD3/production/_ext/1472/rollCntrl.o
                                                  build/ICD3/production/_ext/1472/pitchCntrl.o
                                                  build/ICD3/production/_ext/1472/navigate.o
cyclesUntilStartTriggerAction                     build/ICD3/production/_ext/1472/behavior.o
cyclesUntilStopTriggerAction                      build/ICD3/production/_ext/1472/behavior.o
dcm_absolute_to_relative                          build/ICD3/production/_ext/1077471063/libDCM.o
                                                  build/ICD3/production/_ext/1472/flightplan-waypoints.o
dcm_calibrate                                     build/ICD3/production/_ext/1077471063/libDCM.o
                                                  build/ICD3/production/_ext/1472/states.o
dcm_callback_gps_location_updated                 build/ICD3/production/_ext/1472/navigate.o
                                                  build/ICD3/production/_ext/1077471063/gpsParseCommon.o
dcm_declination_angle                             build/ICD3/production/_ext/1077471063/rmat.o
dcm_enable_yaw_drift_correction                   build/ICD3/production/_ext/1077471063/estYawDrift.o
                                                  build/ICD3/production/_ext/1472/behavior.o
dcm_flags                                         build/ICD3/production/_ext/1077471063/libDCM.o
                                                  build/ICD3/production/_ext/1472/servoPrepare.o
                                                  build/ICD3/production/_ext/1472/states.o
                                                  build/ICD3/production/_ext/1077471063/deadReckoning.o
                                                  build/ICD3/production/_ext/1077471063/rmat.o
                                                  build/ICD3/production/_ext/1077471063/gpsParseCommon.o
                                                  build/ICD3/production/_ext/1077471063/estYawDrift.o
                                                  build/ICD3/production/_ext/1077471063/estWind.o
dcm_init                                          build/ICD3/production/_ext/1077471063/libDCM.o
                                                  build/ICD3/production/_ext/1472/main.o
dcm_init_rmat                                     build/ICD3/production/_ext/1077471063/rmat.o
                                                  build/ICD3/production/_ext/1077471063/libDCM.o
dcm_run_imu_step                                  build/ICD3/production/_ext/1077471063/rmat.o
                                                  build/ICD3/production/_ext/1077471063/libDCM.o
dcm_run_init_step                                 build/ICD3/production/_ext/1077471063/libDCM.o
dcm_servo_callback_prepare_outputs                build/ICD3/production/_ext/1472/servoPrepare.o
                                                  build/ICD3/production/_ext/1077471063/libDCM.o
dcm_set_origin_location                           build/ICD3/production/_ext/1077471063/libDCM.o
                                                  build/ICD3/production/_ext/1472/navigate.o
dead_reckon                                       build/ICD3/production/_ext/1077471063/deadReckoning.o
                                                  build/ICD3/production/_ext/1077471063/rmat.o
dead_reckon_clock                                 build/ICD3/production/_ext/1077471063/deadReckoning.o
declinationVector                                 build/ICD3/production/_ext/1077471063/rmat.o
defaultCorcon                                     build/ICD3/production/_ext/1077454706/libUDB.o
                                                  build/ICD3/production/_ext/1077454706/I2C2_udb4.o
                                                  build/ICD3/production/_ext/1077454706/events.o
                                                  build/ICD3/production/_ext/1077454706/serialIO_udb4.o
                                                  build/ICD3/production/_ext/1077454706/radioIn_udb4.o
                                                  build/ICD3/production/_ext/1077454706/analog2digital_udb4.o
                                                  build/ICD3/production/_ext/1077454706/background.o
desiredHeight                                     build/ICD3/production/_ext/1472/altitudeCntrl.o
desired_behavior                                  build/ICD3/production/_ext/1472/behavior.o
                                                  build/ICD3/production/_ext/1472/altitudeCntrl.o
                                                  build/ICD3/production/_ext/1472/flightplan-waypoints.o
                                                  build/ICD3/production/_ext/1472/rollCntrl.o
                                                  build/ICD3/production/_ext/1472/pitchCntrl.o
                                                  build/ICD3/production/_ext/1472/navigate.o
desired_dir                                       build/ICD3/production/_ext/1472/navigate.o
determine_navigation_deflection                   build/ICD3/production/_ext/1472/navigate.o
dirovergndHGPS                                    build/ICD3/production/_ext/1077471063/rmat.o
                                                  build/ICD3/production/_ext/1077471063/gpsParseCommon.o
                                                  build/ICD3/production/_ext/1077471063/estYawDrift.o
dirovergndHRmat                                   build/ICD3/production/_ext/1077471063/rmat.o
                                                  build/ICD3/production/_ext/1077471063/gpsParseCommon.o
div                                               /Applications/microchip/xc16/v1.11/bin/bin/../../lib/liblega-c-coff.a(div.XXo)
                                                  /Applications/microchip/xc16/v1.11/bin/bin/../../lib/liblega-c-coff.a(xgenld.XXo)
elevInput                                         build/ICD3/production/_ext/1472/pitchCntrl.o
elevatorbgain                                     build/ICD3/production/_ext/1472/servoMix.o
enableMagCalibration                              build/ICD3/production/_ext/1077454706/magneto_udb4.o
enableMagRead                                     build/ICD3/production/_ext/1077454706/magneto_udb4.o
end_index                                         build/ICD3/production/_ext/1472/telemetry.o
ent_acquiringS                                    build/ICD3/production/_ext/1472/states.o
ent_calibrateS                                    build/ICD3/production/_ext/1472/states.o
ent_manualS                                       build/ICD3/production/_ext/1472/states.o
ent_returnS                                       build/ICD3/production/_ext/1472/states.o
ent_stabilizedS                                   build/ICD3/production/_ext/1472/states.o
ent_waypointS                                     build/ICD3/production/_ext/1472/states.o
errno                                             /Applications/microchip/xc16/v1.11/bin/bin/../../lib/libm-coff.a(errno.o)
                                                  /Applications/microchip/xc16/v1.11/bin/bin/../../lib/libm-coff.a(dmodrem.o)
error                                             build/ICD3/production/_ext/1077471063/rmat.o
errorRP                                           build/ICD3/production/_ext/1077471063/rmat.o
errorYawground                                    build/ICD3/production/_ext/1077471063/rmat.o
                                                  build/ICD3/production/_ext/1077471063/deadReckoning.o
errorYawplane                                     build/ICD3/production/_ext/1077471063/rmat.o
estYawDrift                                       build/ICD3/production/_ext/1077471063/estYawDrift.o
                                                  build/ICD3/production/_ext/1077471063/gpsParseCommon.o
estimateWind                                      build/ICD3/production/_ext/1077471063/estWind.o
                                                  build/ICD3/production/_ext/1077471063/gpsParseCommon.o
estimatedWind                                     build/ICD3/production/_ext/1077471063/estWind.o
                                                  build/ICD3/production/_ext/1472/navigate.o
                                                  build/ICD3/production/_ext/1077471063/deadReckoning.o
                                                  build/ICD3/production/_ext/1077471063/gpsParseCommon.o
                                                  build/ICD3/production/_ext/1077471063/estYawDrift.o
event_init_done                                   build/ICD3/production/_ext/1077454706/events.o
events                                            build/ICD3/production/_ext/1077454706/events.o
excess_energy_height                              build/ICD3/production/_ext/1472/altitudeCntrl.o
exit                                              jump_table
                                                  /Applications/microchip/xc16/v1.11/bin/bin/../../lib/liblega-c-coff.a(xatexit.XXo)
failSafePulses                                    build/ICD3/production/_ext/1077454706/radioIn_udb4.o
fclose                                            /Applications/microchip/xc16/v1.11/bin/bin/../../lib/liblega-c-coff.a(fclose.XXo)
fclose.XXo:_closeall                              /Applications/microchip/xc16/v1.11/bin/bin/../../lib/liblega-c-coff.a(fclose.XXo)
                                                  jump_table
filterManual                                      build/ICD3/production/_ext/1472/altitudeCntrl.o
flags                                             build/ICD3/production/_ext/1472/states.o
                                                  build/ICD3/production/_ext/1472/mode_switch.o
                                                  build/ICD3/production/_ext/1472/altitudeCntrl.o
                                                  build/ICD3/production/_ext/1472/yawCntrl.o
                                                  build/ICD3/production/_ext/1472/servoMix.o
                                                  build/ICD3/production/_ext/1472/rollCntrl.o
                                                  build/ICD3/production/_ext/1472/pitchCntrl.o
                                                  build/ICD3/production/_ext/1472/navigate.o
                                                  build/ICD3/production/_ext/1472/behavior.o
flight_mode_switch_2pos_poll                      build/ICD3/production/_ext/1472/mode_switch.o
                                                  build/ICD3/production/_ext/1472/servoPrepare.o
flight_mode_switch_auto                           build/ICD3/production/_ext/1472/mode_switch.o
                                                  build/ICD3/production/_ext/1472/states.o
flight_mode_switch_check_set                      build/ICD3/production/_ext/1472/mode_switch.o
                                                  build/ICD3/production/_ext/1472/states.o
flight_mode_switch_home                           build/ICD3/production/_ext/1472/mode_switch.o
                                                  build/ICD3/production/_ext/1472/states.o
flight_mode_switch_manual                         build/ICD3/production/_ext/1472/mode_switch.o
                                                  build/ICD3/production/_ext/1472/states.o
flightplan_live_begin                             build/ICD3/production/_ext/1472/flightplan-waypoints.o
                                                  build/ICD3/production/_ext/1472/telemetry.o
flightplan_live_commit                            build/ICD3/production/_ext/1472/flightplan-waypoints.o
                                                  build/ICD3/production/_ext/1472/telemetry.o
flightplan_live_received_byte                     build/ICD3/production/_ext/1472/flightplan-waypoints.o
                                                  build/ICD3/production/_ext/1472/telemetry.o
floor                                             /Applications/microchip/xc16/v1.11/bin/bin/../../lib/libm-coff.a(floor.o)
                                                  build/ICD3/production/_ext/656130150/time_conversion.o
floorl                                            /Applications/microchip/xc16/v1.11/bin/bin/../../lib/libm-coff.a(floor.o)
fmod                                              /Applications/microchip/xc16/v1.11/bin/bin/../../lib/libm-coff.a(fmod.o)
                                                  build/ICD3/production/_ext/656130150/time_conversion.o
fmodl                                             /Applications/microchip/xc16/v1.11/bin/bin/../../lib/libm-coff.a(fmod.o)
forward_acceleration                              build/ICD3/production/_ext/1077471063/gpsParseCommon.o
                                                  build/ICD3/production/_ext/1077471063/rmat.o
fp_checksum                                       build/ICD3/production/_ext/1472/telemetry.o
fp_high_byte                                      build/ICD3/production/_ext/1472/telemetry.o
free                                              /Applications/microchip/xc16/v1.11/bin/bin/../../lib/liblega-c-coff.a(free.XXo)
                                                  /Applications/microchip/xc16/v1.11/bin/bin/../../lib/liblega-c-coff.a(fclose.XXo)
                                                  /Applications/microchip/xc16/v1.11/bin/bin/../../lib/liblega-c-coff.a(malloc.XXo)
fuselageDirectionHistory                          build/ICD3/production/_ext/1077471063/estWind.o
fwrite                                            /Applications/microchip/xc16/v1.11/bin/bin/../../lib/liblega-c-coff.a(fwrite.XXo)
                                                  /Applications/microchip/xc16/v1.11/bin/bin/../../lib/liblega-c-coff.a(printf_cdnopsuxX.dXXo)
get_fixed_origin                                  build/ICD3/production/_ext/1472/flightplan-waypoints.o
                                                  build/ICD3/production/_ext/1472/navigate.o
ggain                                             build/ICD3/production/_ext/1077471063/rmat.o
goal                                              build/ICD3/production/_ext/1472/navigate.o
                                                  build/ICD3/production/_ext/1472/altitudeCntrl.o
                                                  build/ICD3/production/_ext/1472/flightplan-waypoints.o
gplane                                            build/ICD3/production/_ext/1077471063/rmat.o
gps_data_age                                      build/ICD3/production/_ext/1077471063/gpsParseCommon.o
                                                  build/ICD3/production/_ext/1472/states.o
gps_nav_valid                                     build/ICD3/production/_ext/1077471063/gpsParseSTD.o
                                                  build/ICD3/production/_ext/1472/navigate.o
                                                  build/ICD3/production/_ext/1077471063/deadReckoning.o
                                                  build/ICD3/production/_ext/1077471063/gpsParseCommon.o
                                                  build/ICD3/production/_ext/1077471063/estYawDrift.o
gps_out_buffer                                    build/ICD3/production/_ext/1077471063/gpsParseCommon.o
gps_out_buffer_length                             build/ICD3/production/_ext/1077471063/gpsParseCommon.o
gps_out_index                                     build/ICD3/production/_ext/1077471063/gpsParseCommon.o
gps_startup_sequence                              build/ICD3/production/_ext/1077471063/gpsParseSTD.o
                                                  build/ICD3/production/_ext/1077471063/libDCM.o
gpsoutbin                                         build/ICD3/production/_ext/1077471063/gpsParseCommon.o
                                                  build/ICD3/production/_ext/1077471063/gpsParseSTD.o
gpsoutline                                        build/ICD3/production/_ext/1077471063/gpsParseCommon.o
                                                  build/ICD3/production/_ext/1077471063/gpsParseSTD.o
groundVelocityHistory                             build/ICD3/production/_ext/1077471063/estWind.o
ground_velocity_magnitudeXY                       build/ICD3/production/_ext/1077471063/gpsParseCommon.o
                                                  build/ICD3/production/_ext/1472/navigate.o
                                                  build/ICD3/production/_ext/1077471063/rmat.o
gyroCorrectionIntegral                            build/ICD3/production/_ext/1077471063/rmat.o
hdop                                              build/ICD3/production/_ext/1077471063/gpsParseCommon.o
                                                  build/ICD3/production/_ext/1472/telemetry.o
                                                  build/ICD3/production/_ext/1077471063/gpsParseSTD.o
hdop_                                             build/ICD3/production/_ext/1077471063/gpsParseSTD.o
hex_char_val                                      build/ICD3/production/_ext/1472/telemetry.o
hmc5883read_index                                 build/ICD3/production/_ext/1077454706/magneto_udb4.o
hmc5883write_index                                build/ICD3/production/_ext/1077454706/magneto_udb4.o
hoverAltitudeCntrl                                build/ICD3/production/_ext/1472/altitudeCntrl.o
hoverPitchCntrl                                   build/ICD3/production/_ext/1472/pitchCntrl.o
hoverRollCntrl                                    build/ICD3/production/_ext/1472/rollCntrl.o
hoverYawCntrl                                     build/ICD3/production/_ext/1472/yawCntrl.o
hoverpitchgain                                    build/ICD3/production/_ext/1472/pitchCntrl.o
hoverpitchkd                                      build/ICD3/production/_ext/1472/pitchCntrl.o
hoverrollkd                                       build/ICD3/production/_ext/1472/rollCntrl.o
hoverrollkp                                       build/ICD3/production/_ext/1472/rollCntrl.o
hoveryawkd                                        build/ICD3/production/_ext/1472/yawCntrl.o
hoveryawkp                                        build/ICD3/production/_ext/1472/yawCntrl.o
i2c2_queue                                        build/ICD3/production/_ext/1077454706/I2C2_udb4.o
idle_timer                                        build/ICD3/production/_ext/1077454706/background.o
init_behavior                                     build/ICD3/production/_ext/1472/behavior.o
                                                  build/ICD3/production/_ext/1472/main.o
init_events                                       build/ICD3/production/_ext/1077454706/events.o
init_flightplan                                   build/ICD3/production/_ext/1472/flightplan-waypoints.o
                                                  build/ICD3/production/_ext/1472/states.o
init_serial                                       build/ICD3/production/_ext/1472/telemetry.o
                                                  build/ICD3/production/_ext/1472/main.o
init_servoPrepare                                 build/ICD3/production/_ext/1472/servoPrepare.o
                                                  build/ICD3/production/_ext/1472/main.o
init_states                                       build/ICD3/production/_ext/1472/states.o
                                                  build/ICD3/production/_ext/1472/main.o
lat_cir                                           build/ICD3/production/_ext/1077471063/gpsParseCommon.o
                                                  build/ICD3/production/_ext/1077471063/libDCM.o
lat_gps                                           build/ICD3/production/_ext/1077471063/gpsParseCommon.o
                                                  build/ICD3/production/_ext/1472/telemetry.o
                                                  build/ICD3/production/_ext/1472/navigate.o
                                                  build/ICD3/production/_ext/1077471063/gpsParseSTD.o
lat_gps_                                          build/ICD3/production/_ext/1077471063/gpsParseSTD.o
lat_origin                                        build/ICD3/production/_ext/1077471063/gpsParseCommon.o
                                                  build/ICD3/production/_ext/1077471063/libDCM.o
ldiv                                              /Applications/microchip/xc16/v1.11/bin/bin/../../lib/liblega-c-coff.a(ldiv.XXo)
                                                  /Applications/microchip/xc16/v1.11/bin/bin/../../lib/liblega-c-coff.a(xldtob.XXo)
locationErrorEarth                                build/ICD3/production/_ext/1077471063/deadReckoning.o
location_previous                                 build/ICD3/production/_ext/1077471063/gpsParseCommon.o
long_gps                                          build/ICD3/production/_ext/1077471063/gpsParseCommon.o
                                                  build/ICD3/production/_ext/1472/telemetry.o
                                                  build/ICD3/production/_ext/1472/navigate.o
                                                  build/ICD3/production/_ext/1077471063/gpsParseSTD.o
long_gps_                                         build/ICD3/production/_ext/1077471063/gpsParseSTD.o
long_origin                                       build/ICD3/production/_ext/1077471063/gpsParseCommon.o
                                                  build/ICD3/production/_ext/1077471063/libDCM.o
long_scale                                        build/ICD3/production/_ext/1077471063/mathlibNAV.o
                                                  build/ICD3/production/_ext/1077471063/libDCM.o
                                                  build/ICD3/production/_ext/1077471063/gpsParseCommon.o
magAlignment                                      build/ICD3/production/_ext/1077471063/rmat.o
magCalibPause                                     build/ICD3/production/_ext/1077454706/magneto_udb4.o
magFieldBodyMagnitudePrevious                     build/ICD3/production/_ext/1077471063/rmat.o
magFieldBodyPrevious                              build/ICD3/production/_ext/1077471063/rmat.o
magFieldEarth                                     build/ICD3/production/_ext/1077471063/rmat.o
magFieldEarthNormalizedPrevious                   build/ICD3/production/_ext/1077471063/rmat.o
magFieldRaw                                       build/ICD3/production/_ext/1077454706/magneto_udb4.o
magGain                                           build/ICD3/production/_ext/1077454706/magneto_udb4.o
magMessage                                        build/ICD3/production/_ext/1077454706/magneto_udb4.o
                                                  build/ICD3/production/_ext/1472/states.o
                                                  build/ICD3/production/_ext/1077471063/rmat.o
mag_drift                                         build/ICD3/production/_ext/1077471063/rmat.o
mag_latency_counter                               build/ICD3/production/_ext/1077471063/rmat.o
magreg                                            build/ICD3/production/_ext/1077454706/magneto_udb4.o
main                                              build/ICD3/production/_ext/1472/main.o
                                                  /Applications/microchip/xc16/v1.11/bin/bin/../../lib/liblega-pic30-coff.a(crt0_standard.o)
malloc                                            /Applications/microchip/xc16/v1.11/bin/bin/../../lib/liblega-c-coff.a(malloc.XXo)
                                                  /Applications/microchip/xc16/v1.11/bin/bin/../../lib/liblega-c-coff.a(xfwprep.XXo)
manualPassthrough                                 build/ICD3/production/_ext/1472/servoPrepare.o
manualS                                           build/ICD3/production/_ext/1472/states.o
                                                  jump_table
manualThrottle                                    build/ICD3/production/_ext/1472/altitudeCntrl.o
maxstack                                          build/ICD3/production/_ext/1077454706/analog2digital_udb4.o
                                                  build/ICD3/production/_ext/1077454706/servoOut.o
memchr                                            /Applications/microchip/xc16/v1.11/bin/bin/../../lib/liblega-c-coff.a(memchr.XXo)
                                                  /Applications/microchip/xc16/v1.11/bin/bin/../../lib/liblega-c-coff.a(xputfld_cdnopsuxX.dXXo)
                                                  /Applications/microchip/xc16/v1.11/bin/bin/../../lib/liblega-c-coff.a(xputfld.XXo)
                                                  /Applications/microchip/xc16/v1.11/bin/bin/../../lib/liblega-c-coff.a(fwrite.XXo)
memcpy                                            /Applications/microchip/xc16/v1.11/bin/bin/../../lib/liblega-c-coff.a(memcpy.XXo)
                                                  /Applications/microchip/xc16/v1.11/bin/bin/../../lib/liblega-c-coff.a(xgenld.XXo)
                                                  /Applications/microchip/xc16/v1.11/bin/bin/../../lib/liblega-c-coff.a(xlitob.XXo)
                                                  /Applications/microchip/xc16/v1.11/bin/bin/../../lib/liblega-c-coff.a(fwrite.XXo)
                                                  /Applications/microchip/xc16/v1.11/bin/bin/../../lib/liblega-c-coff.a(vsnprint.XXo)
mode                                              build/ICD3/production/_ext/1077471063/gpsParseSTD.o
mode_length                                       build/ICD3/production/_ext/1077471063/gpsParseSTD.o
mrindex                                           build/ICD3/production/_ext/1077454706/magneto_udb4.o
msg41parse                                        build/ICD3/production/_ext/1077471063/gpsParseSTD.o
msg_A0                                            build/ICD3/production/_ext/1077471063/gpsParseSTD.o
                                                  jump_table
msg_A2                                            build/ICD3/production/_ext/1077471063/gpsParseSTD.o
                                                  jump_table
msg_B0                                            build/ICD3/production/_ext/1077471063/gpsParseSTD.o
                                                  jump_table
msg_B3                                            build/ICD3/production/_ext/1077471063/gpsParseSTD.o
                                                  jump_table
msg_MSG41                                         build/ICD3/production/_ext/1077471063/gpsParseSTD.o
                                                  jump_table
msg_MSGU                                          build/ICD3/production/_ext/1077471063/gpsParseSTD.o
                                                  jump_table
msg_PL1                                           build/ICD3/production/_ext/1077471063/gpsParseSTD.o
                                                  jump_table
msg_PL2                                           build/ICD3/production/_ext/1077471063/gpsParseSTD.o
                                                  jump_table
msg_parse                                         build/ICD3/production/_ext/1077471063/gpsParseSTD.o
                                                  build/ICD3/production/_ext/1077471063/gpsParseCommon.o
navElevMix                                        build/ICD3/production/_ext/1472/pitchCntrl.o
nav_type_                                         build/ICD3/production/_ext/1077471063/gpsParseSTD.o
nav_valid_                                        build/ICD3/production/_ext/1077471063/gpsParseSTD.o
next_waypoint                                     build/ICD3/production/_ext/1472/flightplan-waypoints.o
noisePulses                                       build/ICD3/production/_ext/1077454706/radioIn_udb4.o
normalAltitudeCntrl                               build/ICD3/production/_ext/1472/altitudeCntrl.o
normalPitchCntrl                                  build/ICD3/production/_ext/1472/pitchCntrl.o
normalRollCntrl                                   build/ICD3/production/_ext/1472/rollCntrl.o
normalYawCntrl                                    build/ICD3/production/_ext/1472/yawCntrl.o
normalize                                         build/ICD3/production/_ext/1077471063/rmat.o
numPointsInCurrentSet                             build/ICD3/production/_ext/1472/flightplan-waypoints.o
omega                                             build/ICD3/production/_ext/1077471063/rmat.o
omegaAccum                                        build/ICD3/production/_ext/1077471063/rmat.o
                                                  build/ICD3/production/_ext/1472/yawCntrl.o
                                                  build/ICD3/production/_ext/1472/rollCntrl.o
omegaSOG                                          build/ICD3/production/_ext/1077471063/rmat.o
omegacorrI                                        build/ICD3/production/_ext/1077471063/rmat.o
omegacorrP                                        build/ICD3/production/_ext/1077471063/rmat.o
omegagyro                                         build/ICD3/production/_ext/1077471063/rmat.o
                                                  build/ICD3/production/_ext/1472/pitchCntrl.o
osc_fail_count                                    build/ICD3/production/_ext/1472/telemetry.o
                                                  build/ICD3/production/_ext/1077454706/traps_udb4_asm.o
outputNum                                         build/ICD3/production/_ext/1077454706/servoOut.o
pI2C2Buffer                                       build/ICD3/production/_ext/1077454706/I2C2_udb4.o
pI2C2_callback                                    build/ICD3/production/_ext/1077454706/I2C2_udb4.o
pI2C2commandBuffer                                build/ICD3/production/_ext/1077454706/I2C2_udb4.o
payloadlength                                     build/ICD3/production/_ext/1077471063/gpsParseSTD.o
pitchAltitudeAdjust                               build/ICD3/production/_ext/1472/altitudeCntrl.o
                                                  build/ICD3/production/_ext/1472/pitchCntrl.o
pitchCntrl                                        build/ICD3/production/_ext/1472/pitchCntrl.o
                                                  build/ICD3/production/_ext/1472/servoPrepare.o
pitch_control                                     build/ICD3/production/_ext/1472/servoPrepare.o
                                                  build/ICD3/production/_ext/1472/servoMix.o
                                                  build/ICD3/production/_ext/1472/pitchCntrl.o
pitch_offset_centred_pwm                          build/ICD3/production/_ext/1472/cameraCntrl.o
pitch_servo_high_ratio                            build/ICD3/production/_ext/1472/cameraCntrl.o
pitch_servo_pwm_max                               build/ICD3/production/_ext/1472/cameraCntrl.o
pitch_servo_pwm_min                               build/ICD3/production/_ext/1472/cameraCntrl.o
pitchgain                                         build/ICD3/production/_ext/1472/pitchCntrl.o
pitchkd                                           build/ICD3/production/_ext/1472/pitchCntrl.o
pitchrate                                         build/ICD3/production/_ext/1472/pitchCntrl.o
previousMagFieldRaw                               build/ICD3/production/_ext/1077454706/magneto_udb4.o
printf_cdnopsuxX.dXXo:_prout                      /Applications/microchip/xc16/v1.11/bin/bin/../../lib/liblega-c-coff.a(printf_cdnopsuxX.dXXo)
                                                  jump_table
process_flightplan                                build/ICD3/production/_ext/1472/navigate.o
                                                  build/ICD3/production/_ext/1077471063/gpsParseCommon.o
progress_to_goal                                  build/ICD3/production/_ext/1472/navigate.o
                                                  build/ICD3/production/_ext/1472/altitudeCntrl.o
quaternion_adjust                                 build/ICD3/production/_ext/1077471063/rmat.o
rawMagCalib                                       build/ICD3/production/_ext/1077454706/magneto_udb4.o
read_accel                                        build/ICD3/production/_ext/1077471063/rmat.o
                                                  build/ICD3/production/_ext/1077471063/libDCM.o
read_gyros                                        build/ICD3/production/_ext/1077471063/rmat.o
                                                  build/ICD3/production/_ext/1077471063/libDCM.o
rect_to_polar                                     build/ICD3/production/_ext/1077471063/mathlibNAV.o
                                                  build/ICD3/production/_ext/1472/navigate.o
                                                  build/ICD3/production/_ext/1077471063/rmat.o
                                                  build/ICD3/production/_ext/1077471063/gpsParseCommon.o
                                                  build/ICD3/production/_ext/1077471063/estWind.o
rect_to_polar16                                   build/ICD3/production/_ext/1077471063/mathlibNAV.o
                                                  build/ICD3/production/_ext/1472/telemetry.o
register_event                                    build/ICD3/production/_ext/1077454706/events.o
remove                                            /Applications/microchip/xc16/v1.11/bin/bin/../../lib/liblega-pic30-coff.a(remove.Lo)
                                                  /Applications/microchip/xc16/v1.11/bin/bin/../../lib/liblega-c-coff.a(fclose.XXo)
resetMagnetometer                                 build/ICD3/production/_ext/1077454706/magneto_udb4.o
returnS                                           build/ICD3/production/_ext/1472/states.o
                                                  jump_table
rise                                              build/ICD3/production/_ext/1077454706/radioIn_udb4.o
rmat                                              build/ICD3/production/_ext/1077471063/rmat.o
                                                  build/ICD3/production/_ext/1472/telemetry.o
                                                  build/ICD3/production/_ext/1472/yawCntrl.o
                                                  build/ICD3/production/_ext/1472/rollCntrl.o
                                                  build/ICD3/production/_ext/1472/pitchCntrl.o
                                                  build/ICD3/production/_ext/1472/navigate.o
                                                  build/ICD3/production/_ext/1472/behavior.o
                                                  build/ICD3/production/_ext/1077471063/gpsParseCommon.o
                                                  build/ICD3/production/_ext/1077471063/estWind.o
rmatDelayCompensated                              build/ICD3/production/_ext/1077471063/rmat.o
rmatPrevious                                      build/ICD3/production/_ext/1077471063/rmat.o
rollCntrl                                         build/ICD3/production/_ext/1472/rollCntrl.o
                                                  build/ICD3/production/_ext/1472/servoPrepare.o
rollElevMixGain                                   build/ICD3/production/_ext/1472/pitchCntrl.o
roll_control                                      build/ICD3/production/_ext/1472/servoPrepare.o
                                                  build/ICD3/production/_ext/1472/servoMix.o
                                                  build/ICD3/production/_ext/1472/rollCntrl.o
roll_pitch_drift                                  build/ICD3/production/_ext/1077471063/rmat.o
rollkd                                            build/ICD3/production/_ext/1472/rollCntrl.o
rollkdrud                                         build/ICD3/production/_ext/1472/yawCntrl.o
rollkp                                            build/ICD3/production/_ext/1472/rollCntrl.o
rollkprud                                         build/ICD3/production/_ext/1472/yawCntrl.o
rotate                                            build/ICD3/production/_ext/1077471063/mathlibNAV.o
                                                  build/ICD3/production/_ext/1077471063/gpsParseCommon.o
rtlWaypoints                                      build/ICD3/production/_ext/1472/flightplan-waypoints.o
rudderElevMixGain                                 build/ICD3/production/_ext/1472/pitchCntrl.o
rudderbgain                                       build/ICD3/production/_ext/1472/servoMix.o
run_flightplan                                    build/ICD3/production/_ext/1472/flightplan-waypoints.o
                                                  build/ICD3/production/_ext/1472/navigate.o
rupdate                                           build/ICD3/production/_ext/1077471063/rmat.o
rxMagnetometer                                    build/ICD3/production/_ext/1077454706/magneto_udb4.o
                                                  build/ICD3/production/_ext/1077471063/libDCM.o
sample_count                                      build/ICD3/production/_ext/1077454706/analog2digital_udb4.o
sb_index                                          build/ICD3/production/_ext/1472/telemetry.o
sbrk                                              /Applications/microchip/xc16/v1.11/bin/bin/../../lib/liblega-pic30-coff.a(sbrk.Lo)
                                                  /Applications/microchip/xc16/v1.11/bin/bin/../../lib/liblega-c-coff.a(xgetmem.XXo)
scale_pwm_out                                     build/ICD3/production/_ext/1077454706/servoOut.o
serial_buffer                                     build/ICD3/production/_ext/1472/telemetry.o
serial_output                                     build/ICD3/production/_ext/1472/telemetry.o
serial_output_8hz                                 build/ICD3/production/_ext/1472/telemetry.o
                                                  build/ICD3/production/_ext/1472/servoPrepare.o
serviceI2C2                                       build/ICD3/production/_ext/1077454706/I2C2_udb4.o
servoMix                                          build/ICD3/production/_ext/1472/servoMix.o
                                                  build/ICD3/production/_ext/1472/servoPrepare.o
setBehavior                                       build/ICD3/production/_ext/1472/behavior.o
                                                  build/ICD3/production/_ext/1472/flightplan-waypoints.o
setTargetAltitude                                 build/ICD3/production/_ext/1472/altitudeCntrl.o
set_camera_view                                   build/ICD3/production/_ext/1472/cameraCntrl.o
                                                  build/ICD3/production/_ext/1472/flightplan-waypoints.o
set_goal                                          build/ICD3/production/_ext/1472/navigate.o
                                                  build/ICD3/production/_ext/1472/flightplan-waypoints.o
set_pwIn                                          build/ICD3/production/_ext/1077454706/radioIn_udb4.o
set_throttle_control                              build/ICD3/production/_ext/1472/altitudeCntrl.o
setup_origin                                      build/ICD3/production/_ext/1472/navigate.o
sine                                              build/ICD3/production/_ext/1077471063/mathlibNAV.o
                                                  build/ICD3/production/_ext/1472/navigate.o
                                                  build/ICD3/production/_ext/1077471063/rmat.o
                                                  build/ICD3/production/_ext/1077471063/gpsParseCommon.o
                                                  build/ICD3/production/_ext/1077471063/estYawDrift.o
                                                  build/ICD3/production/_ext/1077471063/estWind.o
sintab                                            build/ICD3/production/_ext/1077471063/mathlibNAV.o
sio_fp_checksum                                   build/ICD3/production/_ext/1472/telemetry.o
                                                  jump_table
sio_fp_data                                       build/ICD3/production/_ext/1472/telemetry.o
                                                  jump_table
sio_newMsg                                        build/ICD3/production/_ext/1472/telemetry.o
                                                  jump_table
sio_parse                                         build/ICD3/production/_ext/1472/telemetry.o
sio_voltage_high                                  build/ICD3/production/_ext/1472/telemetry.o
                                                  jump_table
sio_voltage_low                                   build/ICD3/production/_ext/1472/telemetry.o
                                                  jump_table
sog_gps                                           build/ICD3/production/_ext/1077471063/gpsParseCommon.o
                                                  build/ICD3/production/_ext/1472/telemetry.o
                                                  build/ICD3/production/_ext/1077471063/gpsParseSTD.o
sog_gps_                                          build/ICD3/production/_ext/1077471063/gpsParseSTD.o
sog_previous                                      build/ICD3/production/_ext/1077471063/gpsParseCommon.o
speed_height                                      build/ICD3/production/_ext/1472/altitudeCntrl.o
spin_axis                                         build/ICD3/production/_ext/1077471063/rmat.o
spin_rate                                         build/ICD3/production/_ext/1077471063/rmat.o
sqrt_int                                          build/ICD3/production/_ext/1077471063/mathlibNAV.o
sqrt_long                                         build/ICD3/production/_ext/1077471063/mathlibNAV.o
                                                  build/ICD3/production/_ext/1077471063/rmat.o
stabilizedS                                       build/ICD3/production/_ext/1472/states.o
                                                  jump_table
standby_timer                                     build/ICD3/production/_ext/1472/states.o
startS                                            build/ICD3/production/_ext/1472/states.o
                                                  jump_table
start_pwm_outputs                                 build/ICD3/production/_ext/1077454706/servoOut.o
                                                  build/ICD3/production/_ext/1077454706/background.o
stateS                                            build/ICD3/production/_ext/1472/states.o
store_index                                       build/ICD3/production/_ext/1077471063/gpsParseSTD.o
strchr                                            /Applications/microchip/xc16/v1.11/bin/bin/../../lib/liblega-c-coff.a(strchr.XXo)
                                                  /Applications/microchip/xc16/v1.11/bin/bin/../../lib/liblega-c-coff.a(xprintf_cdnopsuxX.dXXo)
                                                  /Applications/microchip/xc16/v1.11/bin/bin/../../lib/liblega-c-coff.a(xprintf.XXo)
strlen                                            /Applications/microchip/xc16/v1.11/bin/bin/../../lib/liblega-c-coff.a(strlen.XXo)
                                                  /Applications/microchip/xc16/v1.11/bin/bin/../../lib/liblega-c-coff.a(xputfld_cdnopsuxX.dXXo)
                                                  /Applications/microchip/xc16/v1.11/bin/bin/../../lib/liblega-c-coff.a(xputfld.XXo)
                                                  build/ICD3/production/_ext/1077471063/gpsParseCommon.o
svs                                               build/ICD3/production/_ext/1077471063/gpsParseCommon.o
                                                  build/ICD3/production/_ext/1472/telemetry.o
                                                  build/ICD3/production/_ext/1077471063/gpsParseSTD.o
svs_                                              build/ICD3/production/_ext/1077471063/gpsParseSTD.o
tan_pitch_in_stabilized_mode                      build/ICD3/production/_ext/1472/cameraCntrl.o
testPoint                                         build/ICD3/production/_ext/1472/tesPoint.o
throttleFiltered                                  build/ICD3/production/_ext/1472/altitudeCntrl.o
                                                  build/ICD3/production/_ext/1472/states.o
throttle_control                                  build/ICD3/production/_ext/1472/servoPrepare.o
                                                  build/ICD3/production/_ext/1472/altitudeCntrl.o
                                                  build/ICD3/production/_ext/1472/servoMix.o
tofinish_line                                     build/ICD3/production/_ext/1472/navigate.o
                                                  build/ICD3/production/_ext/1472/flightplan-waypoints.o
                                                  build/ICD3/production/_ext/1472/pitchCntrl.o
togoal                                            build/ICD3/production/_ext/1472/navigate.o
                                                  build/ICD3/production/_ext/1472/flightplan-waypoints.o
total_energy                                      build/ICD3/production/_ext/1077471063/deadReckoning.o
tow                                               build/ICD3/production/_ext/1077471063/gpsParseCommon.o
                                                  build/ICD3/production/_ext/1472/telemetry.o
                                                  build/ICD3/production/_ext/1077471063/gpsParseSTD.o
tow_                                              build/ICD3/production/_ext/1077471063/gpsParseSTD.o
trap_flags                                        build/ICD3/production/_ext/1472/telemetry.o
                                                  build/ICD3/production/_ext/1077454706/traps_udb4_asm.o
trap_source                                       build/ICD3/production/_ext/1472/telemetry.o
                                                  build/ICD3/production/_ext/1077454706/traps_udb4_asm.o
triggerActionSetValue                             build/ICD3/production/_ext/1472/behavior.o
trigger_event                                     build/ICD3/production/_ext/1077454706/events.o
                                                  build/ICD3/production/_ext/1077454706/I2C2_udb4.o
udb_a2d_record_offsets                            build/ICD3/production/_ext/1077454706/libUDB.o
                                                  build/ICD3/production/_ext/1077471063/libDCM.o
udb_background_callback_periodic                  build/ICD3/production/_ext/1472/states.o
                                                  build/ICD3/production/_ext/1077454706/background.o
udb_background_callback_triggered                 build/ICD3/production/_ext/1077471063/gpsParseCommon.o
                                                  build/ICD3/production/_ext/1077454706/background.o
udb_background_trigger                            build/ICD3/production/_ext/1077454706/background.o
                                                  build/ICD3/production/_ext/1077471063/gpsParseSTD.o
udb_callback_radio_did_turn_off                   build/ICD3/production/_ext/1472/states.o
udb_callback_read_sensors                         build/ICD3/production/_ext/1077471063/libDCM.o
                                                  build/ICD3/production/_ext/1077454706/background.o
udb_cpu_load                                      build/ICD3/production/_ext/1077454706/background.o
                                                  build/ICD3/production/_ext/1472/telemetry.o
udb_flags                                         build/ICD3/production/_ext/1077454706/libUDB.o
                                                  build/ICD3/production/_ext/1472/mode_switch.o
                                                  build/ICD3/production/_ext/1472/altitudeCntrl.o
                                                  build/ICD3/production/_ext/1472/yawCntrl.o
                                                  build/ICD3/production/_ext/1472/states.o
                                                  build/ICD3/production/_ext/1472/servoMix.o
                                                  build/ICD3/production/_ext/1472/pitchCntrl.o
                                                  build/ICD3/production/_ext/1077454706/analog2digital_udb4.o
                                                  build/ICD3/production/_ext/1077454706/background.o
udb_gps_callback_get_byte_to_send                 build/ICD3/production/_ext/1077471063/gpsParseCommon.o
                                                  build/ICD3/production/_ext/1077454706/serialIO_udb4.o
udb_gps_callback_received_byte                    build/ICD3/production/_ext/1077471063/gpsParseCommon.o
                                                  build/ICD3/production/_ext/1077454706/serialIO_udb4.o
udb_gps_check_rate                                build/ICD3/production/_ext/1077454706/serialIO_udb4.o
udb_gps_set_rate                                  build/ICD3/production/_ext/1077454706/serialIO_udb4.o
                                                  build/ICD3/production/_ext/1077471063/gpsParseSTD.o
udb_gps_start_sending_data                        build/ICD3/production/_ext/1077454706/serialIO_udb4.o
                                                  build/ICD3/production/_ext/1077471063/gpsParseCommon.o
udb_heartbeat_counter                             build/ICD3/production/_ext/1077454706/background.o
                                                  build/ICD3/production/_ext/1472/servoPrepare.o
                                                  build/ICD3/production/_ext/1077471063/libDCM.o
udb_init                                          build/ICD3/production/_ext/1077454706/libUDB.o
                                                  build/ICD3/production/_ext/1472/main.o
udb_init_ADC                                      build/ICD3/production/_ext/1077454706/analog2digital_udb4.o
                                                  build/ICD3/production/_ext/1077454706/libUDB.o
udb_init_GPS                                      build/ICD3/production/_ext/1077454706/serialIO_udb4.o
                                                  build/ICD3/production/_ext/1077454706/libUDB.o
udb_init_USART                                    build/ICD3/production/_ext/1077454706/serialIO_udb4.o
                                                  build/ICD3/production/_ext/1077454706/libUDB.o
udb_init_accelerometer                            build/ICD3/production/_ext/1077454706/analog2digital_udb4.o
udb_init_capture                                  build/ICD3/production/_ext/1077454706/radioIn_udb4.o
                                                  build/ICD3/production/_ext/1077454706/libUDB.o
udb_init_clock                                    build/ICD3/production/_ext/1077454706/background.o
                                                  build/ICD3/production/_ext/1077454706/libUDB.o
udb_init_gyros                                    build/ICD3/production/_ext/1077454706/analog2digital_udb4.o
udb_init_leds                                     build/ICD3/production/_ext/1077454706/libUDB.o
udb_init_pwm                                      build/ICD3/production/_ext/1077454706/servoOut.o
                                                  build/ICD3/production/_ext/1077454706/libUDB.o
udb_magFieldBody                                  build/ICD3/production/_ext/1077454706/magneto_udb4.o
                                                  build/ICD3/production/_ext/1077471063/rmat.o
udb_magOffset                                     build/ICD3/production/_ext/1077454706/magneto_udb4.o
                                                  build/ICD3/production/_ext/1077471063/rmat.o
udb_magnetometer_callback_data_available          build/ICD3/production/_ext/1077471063/estYawDrift.o
                                                  build/ICD3/production/_ext/1077454706/magneto_udb4.o
udb_pwIn                                          build/ICD3/production/_ext/1077454706/radioIn_udb4.o
                                                  build/ICD3/production/_ext/1472/mode_switch.o
                                                  build/ICD3/production/_ext/1472/altitudeCntrl.o
                                                  build/ICD3/production/_ext/1472/servoPrepare.o
                                                  build/ICD3/production/_ext/1472/yawCntrl.o
                                                  build/ICD3/production/_ext/1472/servoMix.o
                                                  build/ICD3/production/_ext/1472/pitchCntrl.o
                                                  build/ICD3/production/_ext/1077454706/libUDB.o
udb_pwOut                                         build/ICD3/production/_ext/1077454706/servoOut.o
                                                  build/ICD3/production/_ext/1472/servoPrepare.o
                                                  build/ICD3/production/_ext/1472/servoMix.o
udb_pwTrim                                        build/ICD3/production/_ext/1077454706/radioIn_udb4.o
                                                  build/ICD3/production/_ext/1472/altitudeCntrl.o
                                                  build/ICD3/production/_ext/1472/servoPrepare.o
                                                  build/ICD3/production/_ext/1472/yawCntrl.o
                                                  build/ICD3/production/_ext/1472/servoMix.o
                                                  build/ICD3/production/_ext/1472/pitchCntrl.o
                                                  build/ICD3/production/_ext/1077454706/libUDB.o
udb_run                                           build/ICD3/production/_ext/1077454706/libUDB.o
                                                  build/ICD3/production/_ext/1472/main.o
udb_serial_callback_get_byte_to_send              build/ICD3/production/_ext/1472/telemetry.o
                                                  build/ICD3/production/_ext/1077454706/serialIO_udb4.o
udb_serial_callback_received_byte                 build/ICD3/production/_ext/1472/telemetry.o
                                                  build/ICD3/production/_ext/1077454706/serialIO_udb4.o
udb_serial_check_rate                             build/ICD3/production/_ext/1077454706/serialIO_udb4.o
udb_serial_set_rate                               build/ICD3/production/_ext/1077454706/serialIO_udb4.o
                                                  build/ICD3/production/_ext/1472/telemetry.o
udb_serial_start_sending_data                     build/ICD3/production/_ext/1077454706/serialIO_udb4.o
                                                  build/ICD3/production/_ext/1472/telemetry.o
udb_servo_callback_prepare_outputs                build/ICD3/production/_ext/1077471063/libDCM.o
                                                  build/ICD3/production/_ext/1077454706/background.o
udb_servo_pulsesat                                build/ICD3/production/_ext/1077454706/libUDB.o
                                                  build/ICD3/production/_ext/1472/altitudeCntrl.o
                                                  build/ICD3/production/_ext/1472/servoMix.o
udb_servo_record_trims                            build/ICD3/production/_ext/1077454706/libUDB.o
                                                  build/ICD3/production/_ext/1472/states.o
udb_set_action_state                              build/ICD3/production/_ext/1077454706/servoOut.o
udb_vref                                          build/ICD3/production/_ext/1077454706/analog2digital_udb4.o
udb_xaccel                                        build/ICD3/production/_ext/1077454706/analog2digital_udb4.o
                                                  build/ICD3/production/_ext/1077454706/libUDB.o
                                                  build/ICD3/production/_ext/1077471063/rmat.o
udb_xrate                                         build/ICD3/production/_ext/1077454706/analog2digital_udb4.o
                                                  build/ICD3/production/_ext/1077454706/libUDB.o
                                                  build/ICD3/production/_ext/1077471063/rmat.o
udb_yaccel                                        build/ICD3/production/_ext/1077454706/analog2digital_udb4.o
                                                  build/ICD3/production/_ext/1077454706/libUDB.o
                                                  build/ICD3/production/_ext/1077471063/rmat.o
udb_yrate                                         build/ICD3/production/_ext/1077454706/analog2digital_udb4.o
                                                  build/ICD3/production/_ext/1077454706/libUDB.o
                                                  build/ICD3/production/_ext/1077471063/rmat.o
udb_zaccel                                        build/ICD3/production/_ext/1077454706/analog2digital_udb4.o
                                                  build/ICD3/production/_ext/1077454706/libUDB.o
                                                  build/ICD3/production/_ext/1077471063/rmat.o
udb_zrate                                         build/ICD3/production/_ext/1077454706/analog2digital_udb4.o
                                                  build/ICD3/production/_ext/1077454706/libUDB.o
                                                  build/ICD3/production/_ext/1077471063/rmat.o
un                                                build/ICD3/production/_ext/1077471063/gpsParseSTD.o
updateBehavior                                    build/ICD3/production/_ext/1472/behavior.o
                                                  build/ICD3/production/_ext/1472/servoPrepare.o
updateTriggerAction                               build/ICD3/production/_ext/1472/behavior.o
                                                  build/ICD3/production/_ext/1472/servoPrepare.o
update_goal_alt                                   build/ICD3/production/_ext/1472/navigate.o
uptime                                            build/ICD3/production/_ext/1077454706/background.o
use_fixed_origin                                  build/ICD3/production/_ext/1472/flightplan-waypoints.o
                                                  build/ICD3/production/_ext/1472/navigate.o
vector2_mag                                       build/ICD3/production/_ext/1077471063/mathlibNAV.o
vector2_normalize                                 build/ICD3/production/_ext/1077471063/mathlibNAV.o
                                                  build/ICD3/production/_ext/1077471063/rmat.o
vector3_mag                                       build/ICD3/production/_ext/1077471063/mathlibNAV.o
                                                  build/ICD3/production/_ext/1077471063/deadReckoning.o
                                                  build/ICD3/production/_ext/1077471063/rmat.o
                                                  build/ICD3/production/_ext/1077471063/gpsParseCommon.o
                                                  build/ICD3/production/_ext/1077471063/estWind.o
vector3_normalize                                 build/ICD3/production/_ext/1077471063/mathlibNAV.o
                                                  build/ICD3/production/_ext/1077471063/rmat.o
velocityErrorEarth                                build/ICD3/production/_ext/1077471063/deadReckoning.o
velocity_previous                                 build/ICD3/production/_ext/1077471063/gpsParseCommon.o
view_location                                     build/ICD3/production/_ext/1472/cameraCntrl.o
voltage_milis                                     build/ICD3/production/_ext/1472/telemetry.o
voltage_temp                                      build/ICD3/production/_ext/1472/telemetry.o
vref_adj                                          build/ICD3/production/_ext/1077454706/analog2digital_udb4.o
                                                  build/ICD3/production/_ext/1077454706/background.o
                                                  build/ICD3/production/_ext/1077471063/rmat.o
vsnprint.XXo:_prout                               /Applications/microchip/xc16/v1.11/bin/bin/../../lib/liblega-c-coff.a(vsnprint.XXo)
                                                  jump_table
vsnprintf                                         /Applications/microchip/xc16/v1.11/bin/bin/../../lib/liblega-c-coff.a(vsnprint.XXo)
                                                  build/ICD3/production/_ext/1472/telemetry.o
waggle                                            build/ICD3/production/_ext/1472/states.o
                                                  build/ICD3/production/_ext/1472/servoMix.o
waypointIndex                                     build/ICD3/production/_ext/1472/flightplan-waypoints.o
waypointS                                         build/ICD3/production/_ext/1472/states.o
                                                  jump_table
waypoints                                         build/ICD3/production/_ext/1472/flightplan-waypoints.o
week_no                                           build/ICD3/production/_ext/1077471063/gpsParseCommon.o
                                                  build/ICD3/production/_ext/1472/telemetry.o
                                                  build/ICD3/production/_ext/1077471063/gpsParseSTD.o
week_no_                                          build/ICD3/production/_ext/1077471063/gpsParseSTD.o
wind_gain                                         build/ICD3/production/_ext/1472/servoPrepare.o
                                                  build/ICD3/production/_ext/1472/navigate.o
wind_gain_adjustment                              build/ICD3/production/_ext/1472/navigate.o
                                                  build/ICD3/production/_ext/1472/servoPrepare.o
wp_inject                                         build/ICD3/production/_ext/1472/flightplan-waypoints.o
wp_inject_byte_order                              build/ICD3/production/_ext/1472/flightplan-waypoints.o
wp_inject_pos                                     build/ICD3/production/_ext/1472/flightplan-waypoints.o
wp_to_relative                                    build/ICD3/production/_ext/1472/flightplan-waypoints.o
write                                             /Applications/microchip/xc16/v1.11/bin/bin/../../lib/liblega-pic30-coff.a(write.Lo)
                                                  /Applications/microchip/xc16/v1.11/bin/bin/../../lib/liblega-c-coff.a(fflush.XXo)
yawCntrl                                          build/ICD3/production/_ext/1472/yawCntrl.o
                                                  build/ICD3/production/_ext/1472/servoPrepare.o
yaw_control                                       build/ICD3/production/_ext/1472/servoPrepare.o
                                                  build/ICD3/production/_ext/1472/yawCntrl.o
                                                  build/ICD3/production/_ext/1472/servoMix.o
yaw_drift                                         build/ICD3/production/_ext/1077471063/rmat.o
yaw_offset_centred_pwm                            build/ICD3/production/_ext/1472/cameraCntrl.o
yaw_servo_high_ratio                              build/ICD3/production/_ext/1472/cameraCntrl.o
yaw_servo_pwm_max                                 build/ICD3/production/_ext/1472/cameraCntrl.o
yaw_servo_pwm_min                                 build/ICD3/production/_ext/1472/cameraCntrl.o
yawkdail                                          build/ICD3/production/_ext/1472/rollCntrl.o
yawkdrud                                          build/ICD3/production/_ext/1472/yawCntrl.o
yawkpail                                          build/ICD3/production/_ext/1472/navigate.o
yawkprud                                          build/ICD3/production/_ext/1472/navigate.o
